   1               		.file	"HIDParser.c"
   2               	__SP_H__ = 0x3e
   3               	__SP_L__ = 0x3d
   4               	__SREG__ = 0x3f
   5               	__tmp_reg__ = 0
   6               	__zero_reg__ = 1
   7               		.text
   8               	.Ltext0:
   9               		.cfi_sections	.debug_frame
  10               		.section	.text.USB_ProcessHIDReport,"ax",@progbits
  11               	.global	USB_ProcessHIDReport
  13               	USB_ProcessHIDReport:
  14               	.LFB16:
  15               		.file 1 "lib/lufa/LUFA/Drivers/USB/Class/Common/HIDParser.c"
   1:lib/lufa/LUFA/Drivers/USB/Class/Common/HIDParser.c **** /*
   2:lib/lufa/LUFA/Drivers/USB/Class/Common/HIDParser.c ****              LUFA Library
   3:lib/lufa/LUFA/Drivers/USB/Class/Common/HIDParser.c ****      Copyright (C) Dean Camera, 2019.
   4:lib/lufa/LUFA/Drivers/USB/Class/Common/HIDParser.c **** 
   5:lib/lufa/LUFA/Drivers/USB/Class/Common/HIDParser.c ****   dean [at] fourwalledcubicle [dot] com
   6:lib/lufa/LUFA/Drivers/USB/Class/Common/HIDParser.c ****            www.lufa-lib.org
   7:lib/lufa/LUFA/Drivers/USB/Class/Common/HIDParser.c **** */
   8:lib/lufa/LUFA/Drivers/USB/Class/Common/HIDParser.c **** 
   9:lib/lufa/LUFA/Drivers/USB/Class/Common/HIDParser.c **** /*
  10:lib/lufa/LUFA/Drivers/USB/Class/Common/HIDParser.c ****   Copyright 2019  Dean Camera (dean [at] fourwalledcubicle [dot] com)
  11:lib/lufa/LUFA/Drivers/USB/Class/Common/HIDParser.c **** 
  12:lib/lufa/LUFA/Drivers/USB/Class/Common/HIDParser.c ****   Permission to use, copy, modify, distribute, and sell this
  13:lib/lufa/LUFA/Drivers/USB/Class/Common/HIDParser.c ****   software and its documentation for any purpose is hereby granted
  14:lib/lufa/LUFA/Drivers/USB/Class/Common/HIDParser.c ****   without fee, provided that the above copyright notice appear in
  15:lib/lufa/LUFA/Drivers/USB/Class/Common/HIDParser.c ****   all copies and that both that the copyright notice and this
  16:lib/lufa/LUFA/Drivers/USB/Class/Common/HIDParser.c ****   permission notice and warranty disclaimer appear in supporting
  17:lib/lufa/LUFA/Drivers/USB/Class/Common/HIDParser.c ****   documentation, and that the name of the author not be used in
  18:lib/lufa/LUFA/Drivers/USB/Class/Common/HIDParser.c ****   advertising or publicity pertaining to distribution of the
  19:lib/lufa/LUFA/Drivers/USB/Class/Common/HIDParser.c ****   software without specific, written prior permission.
  20:lib/lufa/LUFA/Drivers/USB/Class/Common/HIDParser.c **** 
  21:lib/lufa/LUFA/Drivers/USB/Class/Common/HIDParser.c ****   The author disclaims all warranties with regard to this
  22:lib/lufa/LUFA/Drivers/USB/Class/Common/HIDParser.c ****   software, including all implied warranties of merchantability
  23:lib/lufa/LUFA/Drivers/USB/Class/Common/HIDParser.c ****   and fitness.  In no event shall the author be liable for any
  24:lib/lufa/LUFA/Drivers/USB/Class/Common/HIDParser.c ****   special, indirect or consequential damages or any damages
  25:lib/lufa/LUFA/Drivers/USB/Class/Common/HIDParser.c ****   whatsoever resulting from loss of use, data or profits, whether
  26:lib/lufa/LUFA/Drivers/USB/Class/Common/HIDParser.c ****   in an action of contract, negligence or other tortious action,
  27:lib/lufa/LUFA/Drivers/USB/Class/Common/HIDParser.c ****   arising out of or in connection with the use or performance of
  28:lib/lufa/LUFA/Drivers/USB/Class/Common/HIDParser.c ****   this software.
  29:lib/lufa/LUFA/Drivers/USB/Class/Common/HIDParser.c **** */
  30:lib/lufa/LUFA/Drivers/USB/Class/Common/HIDParser.c **** 
  31:lib/lufa/LUFA/Drivers/USB/Class/Common/HIDParser.c **** #define  __INCLUDE_FROM_USB_DRIVER
  32:lib/lufa/LUFA/Drivers/USB/Class/Common/HIDParser.c **** #define  __INCLUDE_FROM_HID_DRIVER
  33:lib/lufa/LUFA/Drivers/USB/Class/Common/HIDParser.c **** #include "HIDParser.h"
  34:lib/lufa/LUFA/Drivers/USB/Class/Common/HIDParser.c **** 
  35:lib/lufa/LUFA/Drivers/USB/Class/Common/HIDParser.c **** uint8_t USB_ProcessHIDReport(const uint8_t* ReportData,
  36:lib/lufa/LUFA/Drivers/USB/Class/Common/HIDParser.c ****                              uint16_t ReportSize,
  37:lib/lufa/LUFA/Drivers/USB/Class/Common/HIDParser.c ****                              HID_ReportInfo_t* const ParserData)
  38:lib/lufa/LUFA/Drivers/USB/Class/Common/HIDParser.c **** {
  16               		.loc 1 38 0
  17               		.cfi_startproc
  18               	.LVL0:
  19 0000 2F92      		push r2
  20               	.LCFI0:
  21               		.cfi_def_cfa_offset 3
  22               		.cfi_offset 2, -2
  23 0002 3F92      		push r3
  24               	.LCFI1:
  25               		.cfi_def_cfa_offset 4
  26               		.cfi_offset 3, -3
  27 0004 4F92      		push r4
  28               	.LCFI2:
  29               		.cfi_def_cfa_offset 5
  30               		.cfi_offset 4, -4
  31 0006 5F92      		push r5
  32               	.LCFI3:
  33               		.cfi_def_cfa_offset 6
  34               		.cfi_offset 5, -5
  35 0008 6F92      		push r6
  36               	.LCFI4:
  37               		.cfi_def_cfa_offset 7
  38               		.cfi_offset 6, -6
  39 000a 7F92      		push r7
  40               	.LCFI5:
  41               		.cfi_def_cfa_offset 8
  42               		.cfi_offset 7, -7
  43 000c 8F92      		push r8
  44               	.LCFI6:
  45               		.cfi_def_cfa_offset 9
  46               		.cfi_offset 8, -8
  47 000e 9F92      		push r9
  48               	.LCFI7:
  49               		.cfi_def_cfa_offset 10
  50               		.cfi_offset 9, -9
  51 0010 AF92      		push r10
  52               	.LCFI8:
  53               		.cfi_def_cfa_offset 11
  54               		.cfi_offset 10, -10
  55 0012 BF92      		push r11
  56               	.LCFI9:
  57               		.cfi_def_cfa_offset 12
  58               		.cfi_offset 11, -11
  59 0014 CF92      		push r12
  60               	.LCFI10:
  61               		.cfi_def_cfa_offset 13
  62               		.cfi_offset 12, -12
  63 0016 DF92      		push r13
  64               	.LCFI11:
  65               		.cfi_def_cfa_offset 14
  66               		.cfi_offset 13, -13
  67 0018 EF92      		push r14
  68               	.LCFI12:
  69               		.cfi_def_cfa_offset 15
  70               		.cfi_offset 14, -14
  71 001a FF92      		push r15
  72               	.LCFI13:
  73               		.cfi_def_cfa_offset 16
  74               		.cfi_offset 15, -15
  75 001c 0F93      		push r16
  76               	.LCFI14:
  77               		.cfi_def_cfa_offset 17
  78               		.cfi_offset 16, -16
  79 001e 1F93      		push r17
  80               	.LCFI15:
  81               		.cfi_def_cfa_offset 18
  82               		.cfi_offset 17, -17
  83 0020 CF93      		push r28
  84               	.LCFI16:
  85               		.cfi_def_cfa_offset 19
  86               		.cfi_offset 28, -18
  87 0022 DF93      		push r29
  88               	.LCFI17:
  89               		.cfi_def_cfa_offset 20
  90               		.cfi_offset 29, -19
  91 0024 CDB7      		in r28,__SP_L__
  92 0026 DEB7      		in r29,__SP_H__
  93               	.LCFI18:
  94               		.cfi_def_cfa_register 28
  95 0028 CC58      		subi r28,-116
  96 002a D109      		sbc r29,__zero_reg__
  97               	.LCFI19:
  98               		.cfi_def_cfa_offset 160
  99 002c 0FB6      		in __tmp_reg__,__SREG__
 100 002e F894      		cli
 101 0030 DEBF      		out __SP_H__,r29
 102 0032 0FBE      		out __SREG__,__tmp_reg__
 103 0034 CDBF      		out __SP_L__,r28
 104               	/* prologue: function */
 105               	/* frame size = 140 */
 106               	/* stack size = 158 */
 107               	.L__stack_usage = 158
 108 0036 1C01      		movw r2,r24
 109 0038 E796      		adiw r28,117-62
 110 003a 7FAF      		std Y+63,r23
 111 003c 6EAF      		std Y+62,r22
 112 003e E797      		sbiw r28,117-62
 113 0040 6A01      		movw r12,r20
 114               	.LVL1:
  39:lib/lufa/LUFA/Drivers/USB/Class/Common/HIDParser.c **** 	HID_StateTable_t      StateTable[HID_STATETABLE_STACK_DEPTH];
  40:lib/lufa/LUFA/Drivers/USB/Class/Common/HIDParser.c **** 	HID_StateTable_t*     CurrStateTable     = &StateTable[0];
  41:lib/lufa/LUFA/Drivers/USB/Class/Common/HIDParser.c **** 	HID_CollectionPath_t* CurrCollectionPath = NULL;
  42:lib/lufa/LUFA/Drivers/USB/Class/Common/HIDParser.c **** 	HID_ReportSizeInfo_t* CurrReportIDInfo   = &ParserData->ReportIDSizes[0];
 115               		.loc 1 42 0
 116 0042 9A01      		movw r18,r20
 117 0044 2057      		subi r18,112
 118 0046 3C4F      		sbci r19,-4
 119 0048 E996      		adiw r28,119-62
 120 004a 3FAF      		std Y+63,r19
 121 004c 2EAF      		std Y+62,r18
 122 004e E997      		sbiw r28,119-62
 123               	.LVL2:
  43:lib/lufa/LUFA/Drivers/USB/Class/Common/HIDParser.c **** 	uint16_t              UsageList[HID_USAGE_STACK_DEPTH];
  44:lib/lufa/LUFA/Drivers/USB/Class/Common/HIDParser.c **** 	uint8_t               UsageListSize      = 0;
  45:lib/lufa/LUFA/Drivers/USB/Class/Common/HIDParser.c **** 	HID_MinMax_t          UsageMinMax        = {0, 0};
  46:lib/lufa/LUFA/Drivers/USB/Class/Common/HIDParser.c **** 
  47:lib/lufa/LUFA/Drivers/USB/Class/Common/HIDParser.c **** 	memset(ParserData,       0x00, sizeof(HID_ReportInfo_t));
 124               		.loc 1 47 0
 125 0050 89ED      		ldi r24,lo8(-39)
 126 0052 93E0      		ldi r25,lo8(3)
 127               	.LVL3:
 128 0054 DA01      		movw r26,r20
 129 0056 FC01      		movw r30,r24
 130               		0:
 131 0058 1D92      		st X+,__zero_reg__
 132 005a 3197      		sbiw r30,1
 133 005c 01F4      		brne 0b
  48:lib/lufa/LUFA/Drivers/USB/Class/Common/HIDParser.c **** 	memset(CurrStateTable,   0x00, sizeof(HID_StateTable_t));
 134               		.loc 1 48 0
 135 005e FE01      		movw r30,r28
 136 0060 3196      		adiw r30,1
 137 0062 8CE1      		ldi r24,lo8(28)
 138 0064 DF01      		movw r26,r30
 139               		0:
 140 0066 1D92      		st X+,__zero_reg__
 141 0068 8A95      		dec r24
 142 006a 01F4      		brne 0b
  49:lib/lufa/LUFA/Drivers/USB/Class/Common/HIDParser.c **** 	memset(CurrReportIDInfo, 0x00, sizeof(HID_ReportSizeInfo_t));
 143               		.loc 1 49 0
 144 006c 87E0      		ldi r24,lo8(7)
 145 006e D901      		movw r26,r18
 146               		0:
 147 0070 1D92      		st X+,__zero_reg__
 148 0072 8A95      		dec r24
 149 0074 01F4      		brne 0b
  50:lib/lufa/LUFA/Drivers/USB/Class/Common/HIDParser.c **** 
  51:lib/lufa/LUFA/Drivers/USB/Class/Common/HIDParser.c **** 	ParserData->TotalDeviceReports = 1;
 150               		.loc 1 51 0
 151 0076 2150      		subi r18,1
 152 0078 3109      		sbc r19,__zero_reg__
 153               	.LVL4:
 154 007a C158      		subi r28,lo8(-127)
 155 007c DF4F      		sbci r29,hi8(-127)
 156 007e 3983      		std Y+1,r19
 157 0080 2883      		st Y,r18
 158 0082 CF57      		subi r28,lo8(127)
 159 0084 D040      		sbci r29,hi8(127)
 160 0086 81E0      		ldi r24,lo8(1)
 161 0088 D901      		movw r26,r18
 162 008a 8C93      		st X,r24
  45:lib/lufa/LUFA/Drivers/USB/Class/Common/HIDParser.c **** 
 163               		.loc 1 45 0
 164 008c ED96      		adiw r28,121-60
 165 008e 1CAE      		std Y+60,__zero_reg__
 166 0090 1DAE      		std Y+61,__zero_reg__
 167 0092 1EAE      		std Y+62,__zero_reg__
 168 0094 1FAE      		std Y+63,__zero_reg__
 169 0096 ED97      		sbiw r28,121-60
 170 0098 412C      		mov r4,__zero_reg__
 171 009a 512C      		mov r5,__zero_reg__
 172 009c 3201      		movw r6,r4
  44:lib/lufa/LUFA/Drivers/USB/Class/Common/HIDParser.c **** 	HID_MinMax_t          UsageMinMax        = {0, 0};
 173               		.loc 1 44 0
 174 009e 00E0      		ldi r16,0
  41:lib/lufa/LUFA/Drivers/USB/Class/Common/HIDParser.c **** 	HID_ReportSizeInfo_t* CurrReportIDInfo   = &ParserData->ReportIDSizes[0];
 175               		.loc 1 41 0
 176 00a0 E596      		adiw r28,115-62
 177 00a2 1FAE      		std Y+63,__zero_reg__
 178 00a4 1EAE      		std Y+62,__zero_reg__
 179 00a6 E597      		sbiw r28,115-62
  40:lib/lufa/LUFA/Drivers/USB/Class/Common/HIDParser.c **** 	HID_CollectionPath_t* CurrCollectionPath = NULL;
 180               		.loc 1 40 0
 181 00a8 7F01      		movw r14,r30
 182               	.LBB2:
 183               	.LBB3:
 184               	.LBB4:
  52:lib/lufa/LUFA/Drivers/USB/Class/Common/HIDParser.c **** 
  53:lib/lufa/LUFA/Drivers/USB/Class/Common/HIDParser.c **** 	while (ReportSize)
  54:lib/lufa/LUFA/Drivers/USB/Class/Common/HIDParser.c **** 	{
  55:lib/lufa/LUFA/Drivers/USB/Class/Common/HIDParser.c **** 		uint8_t  HIDReportItem  = *ReportData;
  56:lib/lufa/LUFA/Drivers/USB/Class/Common/HIDParser.c **** 		uint32_t ReportItemData;
  57:lib/lufa/LUFA/Drivers/USB/Class/Common/HIDParser.c **** 
  58:lib/lufa/LUFA/Drivers/USB/Class/Common/HIDParser.c **** 		ReportData++;
  59:lib/lufa/LUFA/Drivers/USB/Class/Common/HIDParser.c **** 		ReportSize--;
  60:lib/lufa/LUFA/Drivers/USB/Class/Common/HIDParser.c **** 
  61:lib/lufa/LUFA/Drivers/USB/Class/Common/HIDParser.c **** 		switch (HIDReportItem & HID_RI_DATA_SIZE_MASK)
  62:lib/lufa/LUFA/Drivers/USB/Class/Common/HIDParser.c **** 		{
  63:lib/lufa/LUFA/Drivers/USB/Class/Common/HIDParser.c **** 			case HID_RI_DATA_BITS_32:
  64:lib/lufa/LUFA/Drivers/USB/Class/Common/HIDParser.c **** 				ReportItemData  = (((uint32_t)ReportData[3] << 24) | ((uint32_t)ReportData[2] << 16) |
  65:lib/lufa/LUFA/Drivers/USB/Class/Common/HIDParser.c **** 			                       ((uint16_t)ReportData[1] << 8)  | ReportData[0]);
  66:lib/lufa/LUFA/Drivers/USB/Class/Common/HIDParser.c **** 				ReportSize     -= 4;
  67:lib/lufa/LUFA/Drivers/USB/Class/Common/HIDParser.c **** 				ReportData     += 4;
  68:lib/lufa/LUFA/Drivers/USB/Class/Common/HIDParser.c **** 				break;
  69:lib/lufa/LUFA/Drivers/USB/Class/Common/HIDParser.c **** 
  70:lib/lufa/LUFA/Drivers/USB/Class/Common/HIDParser.c **** 			case HID_RI_DATA_BITS_16:
  71:lib/lufa/LUFA/Drivers/USB/Class/Common/HIDParser.c **** 				ReportItemData  = (((uint16_t)ReportData[1] << 8) | (ReportData[0]));
  72:lib/lufa/LUFA/Drivers/USB/Class/Common/HIDParser.c **** 				ReportSize     -= 2;
  73:lib/lufa/LUFA/Drivers/USB/Class/Common/HIDParser.c **** 				ReportData     += 2;
  74:lib/lufa/LUFA/Drivers/USB/Class/Common/HIDParser.c **** 				break;
  75:lib/lufa/LUFA/Drivers/USB/Class/Common/HIDParser.c **** 
  76:lib/lufa/LUFA/Drivers/USB/Class/Common/HIDParser.c **** 			case HID_RI_DATA_BITS_8:
  77:lib/lufa/LUFA/Drivers/USB/Class/Common/HIDParser.c **** 				ReportItemData  = ReportData[0];
  78:lib/lufa/LUFA/Drivers/USB/Class/Common/HIDParser.c **** 				ReportSize     -= 1;
  79:lib/lufa/LUFA/Drivers/USB/Class/Common/HIDParser.c **** 				ReportData     += 1;
  80:lib/lufa/LUFA/Drivers/USB/Class/Common/HIDParser.c **** 				break;
  81:lib/lufa/LUFA/Drivers/USB/Class/Common/HIDParser.c **** 
  82:lib/lufa/LUFA/Drivers/USB/Class/Common/HIDParser.c **** 			default:
  83:lib/lufa/LUFA/Drivers/USB/Class/Common/HIDParser.c **** 				ReportItemData  = 0;
  84:lib/lufa/LUFA/Drivers/USB/Class/Common/HIDParser.c **** 				break;
  85:lib/lufa/LUFA/Drivers/USB/Class/Common/HIDParser.c **** 		}
  86:lib/lufa/LUFA/Drivers/USB/Class/Common/HIDParser.c **** 
  87:lib/lufa/LUFA/Drivers/USB/Class/Common/HIDParser.c **** 		switch (HIDReportItem & (HID_RI_TYPE_MASK | HID_RI_TAG_MASK))
  88:lib/lufa/LUFA/Drivers/USB/Class/Common/HIDParser.c **** 		{
  89:lib/lufa/LUFA/Drivers/USB/Class/Common/HIDParser.c **** 			case HID_RI_PUSH(0):
  90:lib/lufa/LUFA/Drivers/USB/Class/Common/HIDParser.c **** 				if (CurrStateTable == &StateTable[HID_STATETABLE_STACK_DEPTH - 1])
  91:lib/lufa/LUFA/Drivers/USB/Class/Common/HIDParser.c **** 				  return HID_PARSE_HIDStackOverflow;
  92:lib/lufa/LUFA/Drivers/USB/Class/Common/HIDParser.c **** 
  93:lib/lufa/LUFA/Drivers/USB/Class/Common/HIDParser.c **** 				memmove((CurrStateTable + 1),
  94:lib/lufa/LUFA/Drivers/USB/Class/Common/HIDParser.c **** 				       CurrStateTable,
  95:lib/lufa/LUFA/Drivers/USB/Class/Common/HIDParser.c **** 				       sizeof(HID_StateTable_t));
  96:lib/lufa/LUFA/Drivers/USB/Class/Common/HIDParser.c **** 
  97:lib/lufa/LUFA/Drivers/USB/Class/Common/HIDParser.c **** 				CurrStateTable++;
  98:lib/lufa/LUFA/Drivers/USB/Class/Common/HIDParser.c **** 				break;
  99:lib/lufa/LUFA/Drivers/USB/Class/Common/HIDParser.c **** 
 100:lib/lufa/LUFA/Drivers/USB/Class/Common/HIDParser.c **** 			case HID_RI_POP(0):
 101:lib/lufa/LUFA/Drivers/USB/Class/Common/HIDParser.c **** 				if (CurrStateTable == &StateTable[0])
 102:lib/lufa/LUFA/Drivers/USB/Class/Common/HIDParser.c **** 				  return HID_PARSE_HIDStackUnderflow;
 103:lib/lufa/LUFA/Drivers/USB/Class/Common/HIDParser.c **** 
 104:lib/lufa/LUFA/Drivers/USB/Class/Common/HIDParser.c **** 				CurrStateTable--;
 105:lib/lufa/LUFA/Drivers/USB/Class/Common/HIDParser.c **** 				break;
 106:lib/lufa/LUFA/Drivers/USB/Class/Common/HIDParser.c **** 
 107:lib/lufa/LUFA/Drivers/USB/Class/Common/HIDParser.c **** 			case HID_RI_USAGE_PAGE(0):
 108:lib/lufa/LUFA/Drivers/USB/Class/Common/HIDParser.c **** 				CurrStateTable->Attributes.Usage.Page       = ReportItemData;
 109:lib/lufa/LUFA/Drivers/USB/Class/Common/HIDParser.c **** 				break;
 110:lib/lufa/LUFA/Drivers/USB/Class/Common/HIDParser.c **** 
 111:lib/lufa/LUFA/Drivers/USB/Class/Common/HIDParser.c **** 			case HID_RI_LOGICAL_MINIMUM(0):
 112:lib/lufa/LUFA/Drivers/USB/Class/Common/HIDParser.c **** 				CurrStateTable->Attributes.Logical.Minimum  = ReportItemData;
 113:lib/lufa/LUFA/Drivers/USB/Class/Common/HIDParser.c **** 				break;
 114:lib/lufa/LUFA/Drivers/USB/Class/Common/HIDParser.c **** 
 115:lib/lufa/LUFA/Drivers/USB/Class/Common/HIDParser.c **** 			case HID_RI_LOGICAL_MAXIMUM(0):
 116:lib/lufa/LUFA/Drivers/USB/Class/Common/HIDParser.c **** 				CurrStateTable->Attributes.Logical.Maximum  = ReportItemData;
 117:lib/lufa/LUFA/Drivers/USB/Class/Common/HIDParser.c **** 				break;
 118:lib/lufa/LUFA/Drivers/USB/Class/Common/HIDParser.c **** 
 119:lib/lufa/LUFA/Drivers/USB/Class/Common/HIDParser.c **** 			case HID_RI_PHYSICAL_MINIMUM(0):
 120:lib/lufa/LUFA/Drivers/USB/Class/Common/HIDParser.c **** 				CurrStateTable->Attributes.Physical.Minimum = ReportItemData;
 121:lib/lufa/LUFA/Drivers/USB/Class/Common/HIDParser.c **** 				break;
 122:lib/lufa/LUFA/Drivers/USB/Class/Common/HIDParser.c **** 
 123:lib/lufa/LUFA/Drivers/USB/Class/Common/HIDParser.c **** 			case HID_RI_PHYSICAL_MAXIMUM(0):
 124:lib/lufa/LUFA/Drivers/USB/Class/Common/HIDParser.c **** 				CurrStateTable->Attributes.Physical.Maximum = ReportItemData;
 125:lib/lufa/LUFA/Drivers/USB/Class/Common/HIDParser.c **** 				break;
 126:lib/lufa/LUFA/Drivers/USB/Class/Common/HIDParser.c **** 
 127:lib/lufa/LUFA/Drivers/USB/Class/Common/HIDParser.c **** 			case HID_RI_UNIT_EXPONENT(0):
 128:lib/lufa/LUFA/Drivers/USB/Class/Common/HIDParser.c **** 				CurrStateTable->Attributes.Unit.Exponent    = ReportItemData;
 129:lib/lufa/LUFA/Drivers/USB/Class/Common/HIDParser.c **** 				break;
 130:lib/lufa/LUFA/Drivers/USB/Class/Common/HIDParser.c **** 
 131:lib/lufa/LUFA/Drivers/USB/Class/Common/HIDParser.c **** 			case HID_RI_UNIT(0):
 132:lib/lufa/LUFA/Drivers/USB/Class/Common/HIDParser.c **** 				CurrStateTable->Attributes.Unit.Type        = ReportItemData;
 133:lib/lufa/LUFA/Drivers/USB/Class/Common/HIDParser.c **** 				break;
 134:lib/lufa/LUFA/Drivers/USB/Class/Common/HIDParser.c **** 
 135:lib/lufa/LUFA/Drivers/USB/Class/Common/HIDParser.c **** 			case HID_RI_REPORT_SIZE(0):
 136:lib/lufa/LUFA/Drivers/USB/Class/Common/HIDParser.c **** 				CurrStateTable->Attributes.BitSize          = ReportItemData;
 137:lib/lufa/LUFA/Drivers/USB/Class/Common/HIDParser.c **** 				break;
 138:lib/lufa/LUFA/Drivers/USB/Class/Common/HIDParser.c **** 
 139:lib/lufa/LUFA/Drivers/USB/Class/Common/HIDParser.c **** 			case HID_RI_REPORT_COUNT(0):
 140:lib/lufa/LUFA/Drivers/USB/Class/Common/HIDParser.c **** 				CurrStateTable->ReportCount                 = ReportItemData;
 141:lib/lufa/LUFA/Drivers/USB/Class/Common/HIDParser.c **** 				break;
 142:lib/lufa/LUFA/Drivers/USB/Class/Common/HIDParser.c **** 
 143:lib/lufa/LUFA/Drivers/USB/Class/Common/HIDParser.c **** 			case HID_RI_REPORT_ID(0):
 144:lib/lufa/LUFA/Drivers/USB/Class/Common/HIDParser.c **** 				CurrStateTable->ReportID                    = ReportItemData;
 145:lib/lufa/LUFA/Drivers/USB/Class/Common/HIDParser.c **** 
 146:lib/lufa/LUFA/Drivers/USB/Class/Common/HIDParser.c **** 				if (ParserData->UsingReportIDs)
 147:lib/lufa/LUFA/Drivers/USB/Class/Common/HIDParser.c **** 				{
 148:lib/lufa/LUFA/Drivers/USB/Class/Common/HIDParser.c **** 					CurrReportIDInfo = NULL;
 149:lib/lufa/LUFA/Drivers/USB/Class/Common/HIDParser.c **** 
 150:lib/lufa/LUFA/Drivers/USB/Class/Common/HIDParser.c **** 					for (uint8_t i = 0; i < ParserData->TotalDeviceReports; i++)
 151:lib/lufa/LUFA/Drivers/USB/Class/Common/HIDParser.c **** 					{
 152:lib/lufa/LUFA/Drivers/USB/Class/Common/HIDParser.c **** 						if (ParserData->ReportIDSizes[i].ReportID == CurrStateTable->ReportID)
 153:lib/lufa/LUFA/Drivers/USB/Class/Common/HIDParser.c **** 						{
 154:lib/lufa/LUFA/Drivers/USB/Class/Common/HIDParser.c **** 							CurrReportIDInfo = &ParserData->ReportIDSizes[i];
 155:lib/lufa/LUFA/Drivers/USB/Class/Common/HIDParser.c **** 							break;
 156:lib/lufa/LUFA/Drivers/USB/Class/Common/HIDParser.c **** 						}
 157:lib/lufa/LUFA/Drivers/USB/Class/Common/HIDParser.c **** 					}
 158:lib/lufa/LUFA/Drivers/USB/Class/Common/HIDParser.c **** 
 159:lib/lufa/LUFA/Drivers/USB/Class/Common/HIDParser.c **** 					if (CurrReportIDInfo == NULL)
 160:lib/lufa/LUFA/Drivers/USB/Class/Common/HIDParser.c **** 					{
 161:lib/lufa/LUFA/Drivers/USB/Class/Common/HIDParser.c **** 						if (ParserData->TotalDeviceReports == HID_MAX_REPORT_IDS)
 162:lib/lufa/LUFA/Drivers/USB/Class/Common/HIDParser.c **** 						  return HID_PARSE_InsufficientReportIDItems;
 163:lib/lufa/LUFA/Drivers/USB/Class/Common/HIDParser.c **** 
 164:lib/lufa/LUFA/Drivers/USB/Class/Common/HIDParser.c **** 						CurrReportIDInfo = &ParserData->ReportIDSizes[ParserData->TotalDeviceReports++];
 165:lib/lufa/LUFA/Drivers/USB/Class/Common/HIDParser.c **** 						memset(CurrReportIDInfo, 0x00, sizeof(HID_ReportSizeInfo_t));
 166:lib/lufa/LUFA/Drivers/USB/Class/Common/HIDParser.c **** 					}
 167:lib/lufa/LUFA/Drivers/USB/Class/Common/HIDParser.c **** 				}
 168:lib/lufa/LUFA/Drivers/USB/Class/Common/HIDParser.c **** 
 169:lib/lufa/LUFA/Drivers/USB/Class/Common/HIDParser.c **** 				ParserData->UsingReportIDs = true;
 170:lib/lufa/LUFA/Drivers/USB/Class/Common/HIDParser.c **** 
 171:lib/lufa/LUFA/Drivers/USB/Class/Common/HIDParser.c **** 				CurrReportIDInfo->ReportID = CurrStateTable->ReportID;
 172:lib/lufa/LUFA/Drivers/USB/Class/Common/HIDParser.c **** 				break;
 173:lib/lufa/LUFA/Drivers/USB/Class/Common/HIDParser.c **** 
 174:lib/lufa/LUFA/Drivers/USB/Class/Common/HIDParser.c **** 			case HID_RI_USAGE(0):
 175:lib/lufa/LUFA/Drivers/USB/Class/Common/HIDParser.c **** 				if (UsageListSize == HID_USAGE_STACK_DEPTH)
 176:lib/lufa/LUFA/Drivers/USB/Class/Common/HIDParser.c **** 				  return HID_PARSE_UsageListOverflow;
 177:lib/lufa/LUFA/Drivers/USB/Class/Common/HIDParser.c **** 
 178:lib/lufa/LUFA/Drivers/USB/Class/Common/HIDParser.c **** 				if ((HIDReportItem & HID_RI_DATA_SIZE_MASK) == HID_RI_DATA_BITS_32)
 179:lib/lufa/LUFA/Drivers/USB/Class/Common/HIDParser.c **** 				  CurrStateTable->Attributes.Usage.Page = (ReportItemData >> 16);
 180:lib/lufa/LUFA/Drivers/USB/Class/Common/HIDParser.c **** 
 181:lib/lufa/LUFA/Drivers/USB/Class/Common/HIDParser.c **** 				UsageList[UsageListSize++] = ReportItemData;
 182:lib/lufa/LUFA/Drivers/USB/Class/Common/HIDParser.c **** 				break;
 183:lib/lufa/LUFA/Drivers/USB/Class/Common/HIDParser.c **** 
 184:lib/lufa/LUFA/Drivers/USB/Class/Common/HIDParser.c **** 			case HID_RI_USAGE_MINIMUM(0):
 185:lib/lufa/LUFA/Drivers/USB/Class/Common/HIDParser.c **** 				UsageMinMax.Minimum = ReportItemData;
 186:lib/lufa/LUFA/Drivers/USB/Class/Common/HIDParser.c **** 				break;
 187:lib/lufa/LUFA/Drivers/USB/Class/Common/HIDParser.c **** 
 188:lib/lufa/LUFA/Drivers/USB/Class/Common/HIDParser.c **** 			case HID_RI_USAGE_MAXIMUM(0):
 189:lib/lufa/LUFA/Drivers/USB/Class/Common/HIDParser.c **** 				UsageMinMax.Maximum = ReportItemData;
 190:lib/lufa/LUFA/Drivers/USB/Class/Common/HIDParser.c **** 				break;
 191:lib/lufa/LUFA/Drivers/USB/Class/Common/HIDParser.c **** 
 192:lib/lufa/LUFA/Drivers/USB/Class/Common/HIDParser.c **** 			case HID_RI_COLLECTION(0):
 193:lib/lufa/LUFA/Drivers/USB/Class/Common/HIDParser.c **** 				if (CurrCollectionPath == NULL)
 194:lib/lufa/LUFA/Drivers/USB/Class/Common/HIDParser.c **** 				{
 195:lib/lufa/LUFA/Drivers/USB/Class/Common/HIDParser.c **** 					CurrCollectionPath = &ParserData->CollectionPaths[0];
 196:lib/lufa/LUFA/Drivers/USB/Class/Common/HIDParser.c **** 				}
 197:lib/lufa/LUFA/Drivers/USB/Class/Common/HIDParser.c **** 				else
 198:lib/lufa/LUFA/Drivers/USB/Class/Common/HIDParser.c **** 				{
 199:lib/lufa/LUFA/Drivers/USB/Class/Common/HIDParser.c **** 					HID_CollectionPath_t* ParentCollectionPath = CurrCollectionPath;
 200:lib/lufa/LUFA/Drivers/USB/Class/Common/HIDParser.c **** 
 201:lib/lufa/LUFA/Drivers/USB/Class/Common/HIDParser.c **** 					CurrCollectionPath = &ParserData->CollectionPaths[1];
 202:lib/lufa/LUFA/Drivers/USB/Class/Common/HIDParser.c **** 
 203:lib/lufa/LUFA/Drivers/USB/Class/Common/HIDParser.c **** 					while (CurrCollectionPath->Parent != NULL)
 204:lib/lufa/LUFA/Drivers/USB/Class/Common/HIDParser.c **** 					{
 205:lib/lufa/LUFA/Drivers/USB/Class/Common/HIDParser.c **** 						if (CurrCollectionPath == &ParserData->CollectionPaths[HID_MAX_COLLECTIONS - 1])
 206:lib/lufa/LUFA/Drivers/USB/Class/Common/HIDParser.c **** 						  return HID_PARSE_InsufficientCollectionPaths;
 207:lib/lufa/LUFA/Drivers/USB/Class/Common/HIDParser.c **** 
 208:lib/lufa/LUFA/Drivers/USB/Class/Common/HIDParser.c **** 						CurrCollectionPath++;
 209:lib/lufa/LUFA/Drivers/USB/Class/Common/HIDParser.c **** 					}
 210:lib/lufa/LUFA/Drivers/USB/Class/Common/HIDParser.c **** 
 211:lib/lufa/LUFA/Drivers/USB/Class/Common/HIDParser.c **** 					CurrCollectionPath->Parent = ParentCollectionPath;
 212:lib/lufa/LUFA/Drivers/USB/Class/Common/HIDParser.c **** 				}
 213:lib/lufa/LUFA/Drivers/USB/Class/Common/HIDParser.c **** 
 214:lib/lufa/LUFA/Drivers/USB/Class/Common/HIDParser.c **** 				CurrCollectionPath->Type       = ReportItemData;
 215:lib/lufa/LUFA/Drivers/USB/Class/Common/HIDParser.c **** 				CurrCollectionPath->Usage.Page = CurrStateTable->Attributes.Usage.Page;
 216:lib/lufa/LUFA/Drivers/USB/Class/Common/HIDParser.c **** 
 217:lib/lufa/LUFA/Drivers/USB/Class/Common/HIDParser.c **** 				if (UsageListSize)
 218:lib/lufa/LUFA/Drivers/USB/Class/Common/HIDParser.c **** 				{
 219:lib/lufa/LUFA/Drivers/USB/Class/Common/HIDParser.c **** 					CurrCollectionPath->Usage.Usage = UsageList[0];
 220:lib/lufa/LUFA/Drivers/USB/Class/Common/HIDParser.c **** 
 221:lib/lufa/LUFA/Drivers/USB/Class/Common/HIDParser.c **** 					for (uint8_t i = 1; i < UsageListSize; i++)
 222:lib/lufa/LUFA/Drivers/USB/Class/Common/HIDParser.c **** 					  UsageList[i - 1] = UsageList[i];
 223:lib/lufa/LUFA/Drivers/USB/Class/Common/HIDParser.c **** 
 224:lib/lufa/LUFA/Drivers/USB/Class/Common/HIDParser.c **** 					UsageListSize--;
 225:lib/lufa/LUFA/Drivers/USB/Class/Common/HIDParser.c **** 				}
 226:lib/lufa/LUFA/Drivers/USB/Class/Common/HIDParser.c **** 				else if (UsageMinMax.Minimum <= UsageMinMax.Maximum)
 227:lib/lufa/LUFA/Drivers/USB/Class/Common/HIDParser.c **** 				{
 228:lib/lufa/LUFA/Drivers/USB/Class/Common/HIDParser.c **** 					CurrCollectionPath->Usage.Usage = UsageMinMax.Minimum++;
 229:lib/lufa/LUFA/Drivers/USB/Class/Common/HIDParser.c **** 				}
 230:lib/lufa/LUFA/Drivers/USB/Class/Common/HIDParser.c **** 
 231:lib/lufa/LUFA/Drivers/USB/Class/Common/HIDParser.c **** 				break;
 232:lib/lufa/LUFA/Drivers/USB/Class/Common/HIDParser.c **** 
 233:lib/lufa/LUFA/Drivers/USB/Class/Common/HIDParser.c **** 			case HID_RI_END_COLLECTION(0):
 234:lib/lufa/LUFA/Drivers/USB/Class/Common/HIDParser.c **** 				if (CurrCollectionPath == NULL)
 235:lib/lufa/LUFA/Drivers/USB/Class/Common/HIDParser.c **** 				  return HID_PARSE_UnexpectedEndCollection;
 236:lib/lufa/LUFA/Drivers/USB/Class/Common/HIDParser.c **** 
 237:lib/lufa/LUFA/Drivers/USB/Class/Common/HIDParser.c **** 				CurrCollectionPath = CurrCollectionPath->Parent;
 238:lib/lufa/LUFA/Drivers/USB/Class/Common/HIDParser.c **** 				break;
 239:lib/lufa/LUFA/Drivers/USB/Class/Common/HIDParser.c **** 
 240:lib/lufa/LUFA/Drivers/USB/Class/Common/HIDParser.c **** 			case HID_RI_INPUT(0):
 241:lib/lufa/LUFA/Drivers/USB/Class/Common/HIDParser.c **** 			case HID_RI_OUTPUT(0):
 242:lib/lufa/LUFA/Drivers/USB/Class/Common/HIDParser.c **** 			case HID_RI_FEATURE(0):
 243:lib/lufa/LUFA/Drivers/USB/Class/Common/HIDParser.c **** 				for (uint8_t ReportItemNum = 0; ReportItemNum < CurrStateTable->ReportCount; ReportItemNum++)
 244:lib/lufa/LUFA/Drivers/USB/Class/Common/HIDParser.c **** 				{
 245:lib/lufa/LUFA/Drivers/USB/Class/Common/HIDParser.c **** 					HID_ReportItem_t NewReportItem;
 246:lib/lufa/LUFA/Drivers/USB/Class/Common/HIDParser.c **** 
 247:lib/lufa/LUFA/Drivers/USB/Class/Common/HIDParser.c **** 					memcpy(&NewReportItem.Attributes,
 248:lib/lufa/LUFA/Drivers/USB/Class/Common/HIDParser.c **** 					       &CurrStateTable->Attributes,
 249:lib/lufa/LUFA/Drivers/USB/Class/Common/HIDParser.c **** 					       sizeof(HID_ReportItem_Attributes_t));
 250:lib/lufa/LUFA/Drivers/USB/Class/Common/HIDParser.c **** 
 251:lib/lufa/LUFA/Drivers/USB/Class/Common/HIDParser.c **** 					NewReportItem.ItemFlags      = ReportItemData;
 252:lib/lufa/LUFA/Drivers/USB/Class/Common/HIDParser.c **** 					NewReportItem.CollectionPath = CurrCollectionPath;
 253:lib/lufa/LUFA/Drivers/USB/Class/Common/HIDParser.c **** 					NewReportItem.ReportID       = CurrStateTable->ReportID;
 254:lib/lufa/LUFA/Drivers/USB/Class/Common/HIDParser.c **** 
 255:lib/lufa/LUFA/Drivers/USB/Class/Common/HIDParser.c **** 					if (UsageListSize)
 256:lib/lufa/LUFA/Drivers/USB/Class/Common/HIDParser.c **** 					{
 257:lib/lufa/LUFA/Drivers/USB/Class/Common/HIDParser.c **** 						NewReportItem.Attributes.Usage.Usage = UsageList[0];
 258:lib/lufa/LUFA/Drivers/USB/Class/Common/HIDParser.c **** 
 259:lib/lufa/LUFA/Drivers/USB/Class/Common/HIDParser.c **** 						for (uint8_t i = 1; i < UsageListSize; i++)
 260:lib/lufa/LUFA/Drivers/USB/Class/Common/HIDParser.c **** 						  UsageList[i - 1] = UsageList[i];
 261:lib/lufa/LUFA/Drivers/USB/Class/Common/HIDParser.c **** 
 262:lib/lufa/LUFA/Drivers/USB/Class/Common/HIDParser.c **** 						UsageListSize--;
 263:lib/lufa/LUFA/Drivers/USB/Class/Common/HIDParser.c **** 					}
 264:lib/lufa/LUFA/Drivers/USB/Class/Common/HIDParser.c **** 					else if (UsageMinMax.Minimum <= UsageMinMax.Maximum)
 265:lib/lufa/LUFA/Drivers/USB/Class/Common/HIDParser.c **** 					{
 266:lib/lufa/LUFA/Drivers/USB/Class/Common/HIDParser.c **** 						NewReportItem.Attributes.Usage.Usage = UsageMinMax.Minimum++;
 267:lib/lufa/LUFA/Drivers/USB/Class/Common/HIDParser.c **** 					}
 268:lib/lufa/LUFA/Drivers/USB/Class/Common/HIDParser.c **** 
 269:lib/lufa/LUFA/Drivers/USB/Class/Common/HIDParser.c **** 					uint8_t ItemTypeTag = (HIDReportItem & (HID_RI_TYPE_MASK | HID_RI_TAG_MASK));
 270:lib/lufa/LUFA/Drivers/USB/Class/Common/HIDParser.c **** 
 271:lib/lufa/LUFA/Drivers/USB/Class/Common/HIDParser.c **** 					if (ItemTypeTag == HID_RI_INPUT(0))
 272:lib/lufa/LUFA/Drivers/USB/Class/Common/HIDParser.c **** 					  NewReportItem.ItemType = HID_REPORT_ITEM_In;
 273:lib/lufa/LUFA/Drivers/USB/Class/Common/HIDParser.c **** 					else if (ItemTypeTag == HID_RI_OUTPUT(0))
 274:lib/lufa/LUFA/Drivers/USB/Class/Common/HIDParser.c **** 					  NewReportItem.ItemType = HID_REPORT_ITEM_Out;
 275:lib/lufa/LUFA/Drivers/USB/Class/Common/HIDParser.c **** 					else
 276:lib/lufa/LUFA/Drivers/USB/Class/Common/HIDParser.c **** 					  NewReportItem.ItemType = HID_REPORT_ITEM_Feature;
 277:lib/lufa/LUFA/Drivers/USB/Class/Common/HIDParser.c **** 
 278:lib/lufa/LUFA/Drivers/USB/Class/Common/HIDParser.c **** 					NewReportItem.BitOffset = CurrReportIDInfo->ReportSizeBits[NewReportItem.ItemType];
 279:lib/lufa/LUFA/Drivers/USB/Class/Common/HIDParser.c **** 
 280:lib/lufa/LUFA/Drivers/USB/Class/Common/HIDParser.c **** 					CurrReportIDInfo->ReportSizeBits[NewReportItem.ItemType] += CurrStateTable->Attributes.BitSize
 281:lib/lufa/LUFA/Drivers/USB/Class/Common/HIDParser.c **** 
 282:lib/lufa/LUFA/Drivers/USB/Class/Common/HIDParser.c **** 					ParserData->LargestReportSizeBits = MAX(ParserData->LargestReportSizeBits, CurrReportIDInfo->R
 185               		.loc 1 282 0
 186 00aa FA01      		movw r30,r20
 187 00ac EA52      		subi r30,42
 188 00ae FC4F      		sbci r31,-4
 189 00b0 CF57      		subi r28,lo8(-129)
 190 00b2 DF4F      		sbci r29,hi8(-129)
 191 00b4 F983      		std Y+1,r31
 192 00b6 E883      		st Y,r30
 193 00b8 C158      		subi r28,lo8(129)
 194 00ba D040      		sbci r29,hi8(129)
 195               	.LBE4:
 196               	.LBE3:
 197               	.LBB9:
 205:lib/lufa/LUFA/Drivers/USB/Class/Common/HIDParser.c **** 						  return HID_PARSE_InsufficientCollectionPaths;
 198               		.loc 1 205 0
 199 00bc 2750      		subi r18,7
 200 00be 3109      		sbc r19,__zero_reg__
 201 00c0 C757      		subi r28,lo8(-137)
 202 00c2 DF4F      		sbci r29,hi8(-137)
 203 00c4 3983      		std Y+1,r19
 204 00c6 2883      		st Y,r18
 205 00c8 C958      		subi r28,lo8(137)
 206 00ca D040      		sbci r29,hi8(137)
 207               	.LBE9:
 146:lib/lufa/LUFA/Drivers/USB/Class/Common/HIDParser.c **** 				{
 208               		.loc 1 146 0
 209 00cc CA01      		movw r24,r20
 210 00ce 8852      		subi r24,40
 211 00d0 9C4F      		sbci r25,-4
 212 00d2 CD57      		subi r28,lo8(-131)
 213 00d4 DF4F      		sbci r29,hi8(-131)
 214 00d6 9983      		std Y+1,r25
 215 00d8 8883      		st Y,r24
 216 00da C358      		subi r28,lo8(131)
 217 00dc D040      		sbci r29,hi8(131)
 218               	.LBB10:
 150:lib/lufa/LUFA/Drivers/USB/Class/Common/HIDParser.c **** 					{
 219               		.loc 1 150 0
 220 00de C557      		subi r28,lo8(-139)
 221 00e0 DF4F      		sbci r29,hi8(-139)
 222 00e2 B983      		std Y+1,r27
 223 00e4 A883      		st Y,r26
 224 00e6 CB58      		subi r28,lo8(139)
 225 00e8 D040      		sbci r29,hi8(139)
 226               	.LVL5:
 227               	.L2:
 228               	.LBE10:
 229               	.LBE2:
  53:lib/lufa/LUFA/Drivers/USB/Class/Common/HIDParser.c **** 	{
 230               		.loc 1 53 0
 231 00ea E796      		adiw r28,117-62
 232 00ec 2EAD      		ldd r18,Y+62
 233 00ee 3FAD      		ldd r19,Y+63
 234 00f0 E797      		sbiw r28,117-62
 235 00f2 232B      		or r18,r19
 236 00f4 01F4      		brne .+2
 237 00f6 00C0      		rjmp .L92
 238               	.LBB17:
  55:lib/lufa/LUFA/Drivers/USB/Class/Common/HIDParser.c **** 		uint32_t ReportItemData;
 239               		.loc 1 55 0
 240 00f8 D101      		movw r26,r2
 241 00fa BC91      		ld r27,X
 242 00fc EF96      		adiw r28,126-63
 243 00fe BFAF      		std Y+63,r27
 244 0100 EF97      		sbiw r28,126-63
 245               	.LVL6:
 246 0102 8B2F      		mov r24,r27
 247 0104 8370      		andi r24,lo8(3)
  61:lib/lufa/LUFA/Drivers/USB/Class/Common/HIDParser.c **** 		{
 248               		.loc 1 61 0
 249 0106 8230      		cpi r24,lo8(2)
 250 0108 01F0      		breq .L4
 251 010a 8330      		cpi r24,lo8(3)
 252 010c 01F0      		breq .L5
 253 010e 8130      		cpi r24,lo8(1)
 254 0110 01F0      		breq .L6
  58:lib/lufa/LUFA/Drivers/USB/Class/Common/HIDParser.c **** 		ReportSize--;
 255               		.loc 1 58 0
 256 0112 EFEF      		ldi r30,-1
 257 0114 2E1A      		sub r2,r30
 258 0116 3E0A      		sbc r3,r30
 259               	.LVL7:
  59:lib/lufa/LUFA/Drivers/USB/Class/Common/HIDParser.c **** 
 260               		.loc 1 59 0
 261 0118 E796      		adiw r28,117-62
 262 011a 2EAD      		ldd r18,Y+62
 263 011c 3FAD      		ldd r19,Y+63
 264 011e E797      		sbiw r28,117-62
 265 0120 2150      		subi r18,1
 266 0122 3109      		sbc r19,__zero_reg__
 267               	.LVL8:
 268 0124 E796      		adiw r28,117-62
 269 0126 3FAF      		std Y+63,r19
 270 0128 2EAF      		std Y+62,r18
 271 012a E797      		sbiw r28,117-62
  83:lib/lufa/LUFA/Drivers/USB/Class/Common/HIDParser.c **** 				break;
 272               		.loc 1 83 0
 273 012c 812C      		mov r8,__zero_reg__
 274 012e 912C      		mov r9,__zero_reg__
 275 0130 5401      		movw r10,r8
 276 0132 00C0      		rjmp .L7
 277               	.LVL9:
 278               	.L5:
  64:lib/lufa/LUFA/Drivers/USB/Class/Common/HIDParser.c **** 			                       ((uint16_t)ReportData[1] << 8)  | ReportData[0]);
 279               		.loc 1 64 0
 280 0134 D101      		movw r26,r2
 281 0136 1196      		adiw r26,1
 282 0138 8D90      		ld r8,X+
 283 013a 9D90      		ld r9,X+
 284 013c AD90      		ld r10,X+
 285 013e BC90      		ld r11,X
 286 0140 1497      		sbiw r26,1+3
 287               	.LVL10:
  66:lib/lufa/LUFA/Drivers/USB/Class/Common/HIDParser.c **** 				ReportData     += 4;
 288               		.loc 1 66 0
 289 0142 E796      		adiw r28,117-62
 290 0144 EEAD      		ldd r30,Y+62
 291 0146 FFAD      		ldd r31,Y+63
 292 0148 E797      		sbiw r28,117-62
 293 014a 3597      		sbiw r30,5
 294 014c E796      		adiw r28,117-62
 295 014e FFAF      		std Y+63,r31
 296 0150 EEAF      		std Y+62,r30
 297 0152 E797      		sbiw r28,117-62
 298               	.LVL11:
  67:lib/lufa/LUFA/Drivers/USB/Class/Common/HIDParser.c **** 				break;
 299               		.loc 1 67 0
 300 0154 F5E0      		ldi r31,5
 301 0156 2F0E      		add r2,r31
 302 0158 311C      		adc r3,__zero_reg__
 303               	.LVL12:
  68:lib/lufa/LUFA/Drivers/USB/Class/Common/HIDParser.c **** 
 304               		.loc 1 68 0
 305 015a 00C0      		rjmp .L7
 306               	.LVL13:
 307               	.L4:
  71:lib/lufa/LUFA/Drivers/USB/Class/Common/HIDParser.c **** 				ReportSize     -= 2;
 308               		.loc 1 71 0
 309 015c D101      		movw r26,r2
 310 015e 1196      		adiw r26,1
 311 0160 8D90      		ld r8,X+
 312 0162 9C90      		ld r9,X
 313 0164 1297      		sbiw r26,1+1
 314 0166 A12C      		mov r10,__zero_reg__
 315 0168 B12C      		mov r11,__zero_reg__
 316               	.LVL14:
  72:lib/lufa/LUFA/Drivers/USB/Class/Common/HIDParser.c **** 				ReportData     += 2;
 317               		.loc 1 72 0
 318 016a E796      		adiw r28,117-62
 319 016c EEAD      		ldd r30,Y+62
 320 016e FFAD      		ldd r31,Y+63
 321 0170 E797      		sbiw r28,117-62
 322 0172 3397      		sbiw r30,3
 323 0174 E796      		adiw r28,117-62
 324 0176 FFAF      		std Y+63,r31
 325 0178 EEAF      		std Y+62,r30
 326 017a E797      		sbiw r28,117-62
 327               	.LVL15:
  73:lib/lufa/LUFA/Drivers/USB/Class/Common/HIDParser.c **** 				break;
 328               		.loc 1 73 0
 329 017c F3E0      		ldi r31,3
 330 017e 2F0E      		add r2,r31
 331 0180 311C      		adc r3,__zero_reg__
 332               	.LVL16:
  74:lib/lufa/LUFA/Drivers/USB/Class/Common/HIDParser.c **** 
 333               		.loc 1 74 0
 334 0182 00C0      		rjmp .L7
 335               	.LVL17:
 336               	.L6:
  77:lib/lufa/LUFA/Drivers/USB/Class/Common/HIDParser.c **** 				ReportSize     -= 1;
 337               		.loc 1 77 0
 338 0184 D101      		movw r26,r2
 339 0186 1196      		adiw r26,1
 340 0188 8C90      		ld r8,X
 341 018a 912C      		mov r9,__zero_reg__
 342 018c A12C      		mov r10,__zero_reg__
 343 018e B12C      		mov r11,__zero_reg__
 344               	.LVL18:
  78:lib/lufa/LUFA/Drivers/USB/Class/Common/HIDParser.c **** 				ReportData     += 1;
 345               		.loc 1 78 0
 346 0190 E796      		adiw r28,117-62
 347 0192 EEAD      		ldd r30,Y+62
 348 0194 FFAD      		ldd r31,Y+63
 349 0196 E797      		sbiw r28,117-62
 350 0198 3297      		sbiw r30,2
 351 019a E796      		adiw r28,117-62
 352 019c FFAF      		std Y+63,r31
 353 019e EEAF      		std Y+62,r30
 354 01a0 E797      		sbiw r28,117-62
 355               	.LVL19:
  79:lib/lufa/LUFA/Drivers/USB/Class/Common/HIDParser.c **** 				break;
 356               		.loc 1 79 0
 357 01a2 F2E0      		ldi r31,2
 358 01a4 2F0E      		add r2,r31
 359 01a6 311C      		adc r3,__zero_reg__
 360               	.LVL20:
 361               	.L7:
 362 01a8 EF96      		adiw r28,126-63
 363 01aa 1FAD      		ldd r17,Y+63
 364 01ac EF97      		sbiw r28,126-63
 365 01ae 1C7F      		andi r17,lo8(-4)
  87:lib/lufa/LUFA/Drivers/USB/Class/Common/HIDParser.c **** 		{
 366               		.loc 1 87 0
 367 01b0 1436      		cpi r17,lo8(100)
 368 01b2 01F4      		brne .+2
 369 01b4 00C0      		rjmp .L9
 370 01b6 00F4      		brsh .L10
 371 01b8 1432      		cpi r17,lo8(36)
 372 01ba 01F4      		brne .+2
 373 01bc 00C0      		rjmp .L11
 374 01be 00F4      		brsh .L12
 375 01c0 1830      		cpi r17,lo8(8)
 376 01c2 01F4      		brne .+2
 377 01c4 00C0      		rjmp .L13
 378 01c6 00F4      		brsh .L14
 379 01c8 1430      		cpi r17,lo8(4)
 380 01ca 01F0      		breq .+2
 381 01cc 00C0      		rjmp .L17
 108:lib/lufa/LUFA/Drivers/USB/Class/Common/HIDParser.c **** 				break;
 382               		.loc 1 108 0
 383 01ce D701      		movw r26,r14
 384 01d0 1296      		adiw r26,1+1
 385 01d2 9C92      		st X,r9
 386 01d4 8E92      		st -X,r8
 387 01d6 1197      		sbiw r26,1
 109:lib/lufa/LUFA/Drivers/USB/Class/Common/HIDParser.c **** 
 388               		.loc 1 109 0
 389 01d8 00C0      		rjmp .L17
 390               	.L14:
  87:lib/lufa/LUFA/Drivers/USB/Class/Common/HIDParser.c **** 		{
 391               		.loc 1 87 0
 392 01da 1431      		cpi r17,lo8(20)
 393 01dc 01F4      		brne .+2
 394 01de 00C0      		rjmp .L16
 395 01e0 1831      		cpi r17,lo8(24)
 396 01e2 01F0      		breq .+2
 397 01e4 00C0      		rjmp .L17
 185:lib/lufa/LUFA/Drivers/USB/Class/Common/HIDParser.c **** 				break;
 398               		.loc 1 185 0
 399 01e6 2401      		movw r4,r8
 400 01e8 3501      		movw r6,r10
 401               	.LVL21:
 402 01ea 00C0      		rjmp .L17
 403               	.LVL22:
 404               	.L12:
  87:lib/lufa/LUFA/Drivers/USB/Class/Common/HIDParser.c **** 		{
 405               		.loc 1 87 0
 406 01ec 1433      		cpi r17,lo8(52)
 407 01ee 01F4      		brne .+2
 408 01f0 00C0      		rjmp .L18
 409 01f2 00F4      		brsh .L19
 410 01f4 1832      		cpi r17,lo8(40)
 411 01f6 01F0      		breq .+2
 412 01f8 00C0      		rjmp .L17
 413               	.LVL23:
 189:lib/lufa/LUFA/Drivers/USB/Class/Common/HIDParser.c **** 				break;
 414               		.loc 1 189 0
 415 01fa ED96      		adiw r28,121-60
 416 01fc 8CAE      		std Y+60,r8
 417 01fe 9DAE      		std Y+61,r9
 418 0200 AEAE      		std Y+62,r10
 419 0202 BFAE      		std Y+63,r11
 420 0204 ED97      		sbiw r28,121-60
 190:lib/lufa/LUFA/Drivers/USB/Class/Common/HIDParser.c **** 
 421               		.loc 1 190 0
 422 0206 00C0      		rjmp .L17
 423               	.LVL24:
 424               	.L19:
  87:lib/lufa/LUFA/Drivers/USB/Class/Common/HIDParser.c **** 		{
 425               		.loc 1 87 0
 426 0208 1434      		cpi r17,lo8(68)
 427 020a 01F4      		brne .+2
 428 020c 00C0      		rjmp .L21
 429 020e 1435      		cpi r17,lo8(84)
 430 0210 01F0      		breq .+2
 431 0212 00C0      		rjmp .L17
 128:lib/lufa/LUFA/Drivers/USB/Class/Common/HIDParser.c **** 				break;
 432               		.loc 1 128 0
 433 0214 F701      		movw r30,r14
 434 0216 8186      		std Z+9,r8
 129:lib/lufa/LUFA/Drivers/USB/Class/Common/HIDParser.c **** 
 435               		.loc 1 129 0
 436 0218 00C0      		rjmp .L17
 437               	.L10:
  87:lib/lufa/LUFA/Drivers/USB/Class/Common/HIDParser.c **** 		{
 438               		.loc 1 87 0
 439 021a 1439      		cpi r17,lo8(-108)
 440 021c 01F4      		brne .+2
 441 021e 00C0      		rjmp .L23
 442 0220 00F4      		brsh .L24
 443 0222 1038      		cpi r17,lo8(-128)
 444 0224 01F0      		breq .L25
 445 0226 00F4      		brsh .L26
 446 0228 1437      		cpi r17,lo8(116)
 447 022a 01F0      		breq .+2
 448 022c 00C0      		rjmp .L17
 136:lib/lufa/LUFA/Drivers/USB/Class/Common/HIDParser.c **** 				break;
 449               		.loc 1 136 0
 450 022e F701      		movw r30,r14
 451 0230 8082      		st Z,r8
 137:lib/lufa/LUFA/Drivers/USB/Class/Common/HIDParser.c **** 
 452               		.loc 1 137 0
 453 0232 00C0      		rjmp .L17
 454               	.L26:
  87:lib/lufa/LUFA/Drivers/USB/Class/Common/HIDParser.c **** 		{
 455               		.loc 1 87 0
 456 0234 1438      		cpi r17,lo8(-124)
 457 0236 01F4      		brne .+2
 458 0238 00C0      		rjmp .L28
 459 023a 1039      		cpi r17,lo8(-112)
 460 023c 01F0      		breq .L25
 461 023e 00C0      		rjmp .L17
 462               	.L24:
 463 0240 103B      		cpi r17,lo8(-80)
 464 0242 01F0      		breq .L25
 465 0244 00F4      		brsh .L29
 466 0246 103A      		cpi r17,lo8(-96)
 467 0248 01F4      		brne .+2
 468 024a 00C0      		rjmp .L30
 469 024c 143A      		cpi r17,lo8(-92)
 470 024e 01F0      		breq .L31
 471 0250 00C0      		rjmp .L17
 472               	.L29:
 473 0252 143B      		cpi r17,lo8(-76)
 474 0254 01F0      		breq .L32
 475 0256 103C      		cpi r17,lo8(-64)
 476 0258 01F4      		brne .+2
 477 025a 00C0      		rjmp .L33
 478 025c 00C0      		rjmp .L17
 479               	.L25:
  87:lib/lufa/LUFA/Drivers/USB/Class/Common/HIDParser.c **** 		{
 480               		.loc 1 87 0 is_stmt 0 discriminator 1
 481 025e EE96      		adiw r28,125-63
 482 0260 1FAE      		std Y+63,__zero_reg__
 483 0262 EE97      		sbiw r28,125-63
 484               	.LBB11:
 485               	.LBB6:
 283:lib/lufa/LUFA/Drivers/USB/Class/Common/HIDParser.c **** 
 284:lib/lufa/LUFA/Drivers/USB/Class/Common/HIDParser.c **** 					if (ParserData->TotalReportItems == HID_MAX_REPORTITEMS)
 285:lib/lufa/LUFA/Drivers/USB/Class/Common/HIDParser.c **** 					  return HID_PARSE_InsufficientReportItems;
 286:lib/lufa/LUFA/Drivers/USB/Class/Common/HIDParser.c **** 
 287:lib/lufa/LUFA/Drivers/USB/Class/Common/HIDParser.c **** 					memcpy(&ParserData->ReportItems[ParserData->TotalReportItems],
 288:lib/lufa/LUFA/Drivers/USB/Class/Common/HIDParser.c **** 					       &NewReportItem, sizeof(HID_ReportItem_t));
 289:lib/lufa/LUFA/Drivers/USB/Class/Common/HIDParser.c **** 
 290:lib/lufa/LUFA/Drivers/USB/Class/Common/HIDParser.c **** 					if (!(ReportItemData & HID_IOF_CONSTANT) && CALLBACK_HIDParser_FilterHIDReportItem(&NewReportI
 486               		.loc 1 290 0 is_stmt 1 discriminator 1
 487 0264 D501      		movw r26,r10
 488 0266 C401      		movw r24,r8
 489 0268 8170      		andi r24,1
 490 026a 9927      		clr r25
 491 026c AA27      		clr r26
 492 026e BB27      		clr r27
 493 0270 CB57      		subi r28,lo8(-133)
 494 0272 DF4F      		sbci r29,hi8(-133)
 495 0274 8883      		st Y,r24
 496 0276 9983      		std Y+1,r25
 497 0278 AA83      		std Y+2,r26
 498 027a BB83      		std Y+3,r27
 499 027c C558      		subi r28,lo8(133)
 500 027e D040      		sbci r29,hi8(133)
 501 0280 00C0      		rjmp .L34
 502               	.L31:
 503               	.LBE6:
 504               	.LBE11:
  90:lib/lufa/LUFA/Drivers/USB/Class/Common/HIDParser.c **** 				  return HID_PARSE_HIDStackOverflow;
 505               		.loc 1 90 0
 506 0282 CE01      		movw r24,r28
 507 0284 4D96      		adiw r24,29
 508 0286 E816      		cp r14,r24
 509 0288 F906      		cpc r15,r25
 510 028a 01F4      		brne .+2
 511 028c 00C0      		rjmp .L65
  93:lib/lufa/LUFA/Drivers/USB/Class/Common/HIDParser.c **** 				       CurrStateTable,
 512               		.loc 1 93 0
 513 028e C701      		movw r24,r14
 514 0290 4C96      		adiw r24,28
 515 0292 2CE1      		ldi r18,lo8(28)
 516 0294 F701      		movw r30,r14
 517 0296 DC01      		movw r26,r24
 518               		0:
 519 0298 0190      		ld r0,Z+
 520 029a 0D92      		st X+,r0
 521 029c 2A95      		dec r18
 522 029e 01F4      		brne 0b
 523               	.LVL25:
  97:lib/lufa/LUFA/Drivers/USB/Class/Common/HIDParser.c **** 				break;
 524               		.loc 1 97 0
 525 02a0 7C01      		movw r14,r24
  98:lib/lufa/LUFA/Drivers/USB/Class/Common/HIDParser.c **** 
 526               		.loc 1 98 0
 527 02a2 00C0      		rjmp .L17
 528               	.LVL26:
 529               	.L32:
 101:lib/lufa/LUFA/Drivers/USB/Class/Common/HIDParser.c **** 				  return HID_PARSE_HIDStackUnderflow;
 530               		.loc 1 101 0
 531 02a4 CE01      		movw r24,r28
 532 02a6 0196      		adiw r24,1
 533 02a8 8E15      		cp r24,r14
 534 02aa 9F05      		cpc r25,r15
 535 02ac 01F4      		brne .+2
 536 02ae 00C0      		rjmp .L66
 104:lib/lufa/LUFA/Drivers/USB/Class/Common/HIDParser.c **** 				break;
 537               		.loc 1 104 0
 538 02b0 9CE1      		ldi r25,28
 539 02b2 E91A      		sub r14,r25
 540 02b4 F108      		sbc r15,__zero_reg__
 541               	.LVL27:
 105:lib/lufa/LUFA/Drivers/USB/Class/Common/HIDParser.c **** 
 542               		.loc 1 105 0
 543 02b6 00C0      		rjmp .L17
 544               	.L16:
 112:lib/lufa/LUFA/Drivers/USB/Class/Common/HIDParser.c **** 				break;
 545               		.loc 1 112 0
 546 02b8 F701      		movw r30,r14
 547 02ba 8286      		std Z+10,r8
 548 02bc 9386      		std Z+11,r9
 549 02be A486      		std Z+12,r10
 550 02c0 B586      		std Z+13,r11
 113:lib/lufa/LUFA/Drivers/USB/Class/Common/HIDParser.c **** 
 551               		.loc 1 113 0
 552 02c2 00C0      		rjmp .L17
 553               	.L11:
 116:lib/lufa/LUFA/Drivers/USB/Class/Common/HIDParser.c **** 				break;
 554               		.loc 1 116 0
 555 02c4 D701      		movw r26,r14
 556 02c6 1E96      		adiw r26,14
 557 02c8 8D92      		st X+,r8
 558 02ca 9D92      		st X+,r9
 559 02cc AD92      		st X+,r10
 560 02ce BC92      		st X,r11
 561 02d0 5197      		sbiw r26,14+3
 117:lib/lufa/LUFA/Drivers/USB/Class/Common/HIDParser.c **** 
 562               		.loc 1 117 0
 563 02d2 00C0      		rjmp .L17
 564               	.L18:
 120:lib/lufa/LUFA/Drivers/USB/Class/Common/HIDParser.c **** 				break;
 565               		.loc 1 120 0
 566 02d4 F701      		movw r30,r14
 567 02d6 828A      		std Z+18,r8
 568 02d8 938A      		std Z+19,r9
 569 02da A48A      		std Z+20,r10
 570 02dc B58A      		std Z+21,r11
 121:lib/lufa/LUFA/Drivers/USB/Class/Common/HIDParser.c **** 
 571               		.loc 1 121 0
 572 02de 00C0      		rjmp .L17
 573               	.L21:
 124:lib/lufa/LUFA/Drivers/USB/Class/Common/HIDParser.c **** 				break;
 574               		.loc 1 124 0
 575 02e0 D701      		movw r26,r14
 576 02e2 5696      		adiw r26,22
 577 02e4 8D92      		st X+,r8
 578 02e6 9D92      		st X+,r9
 579 02e8 AD92      		st X+,r10
 580 02ea BC92      		st X,r11
 581 02ec 5997      		sbiw r26,22+3
 125:lib/lufa/LUFA/Drivers/USB/Class/Common/HIDParser.c **** 
 582               		.loc 1 125 0
 583 02ee 00C0      		rjmp .L17
 584               	.L9:
 132:lib/lufa/LUFA/Drivers/USB/Class/Common/HIDParser.c **** 				break;
 585               		.loc 1 132 0
 586 02f0 D701      		movw r26,r14
 587 02f2 1596      		adiw r26,5
 588 02f4 8D92      		st X+,r8
 589 02f6 9D92      		st X+,r9
 590 02f8 AD92      		st X+,r10
 591 02fa BC92      		st X,r11
 592 02fc 1897      		sbiw r26,5+3
 133:lib/lufa/LUFA/Drivers/USB/Class/Common/HIDParser.c **** 
 593               		.loc 1 133 0
 594 02fe 00C0      		rjmp .L17
 595               	.L23:
 140:lib/lufa/LUFA/Drivers/USB/Class/Common/HIDParser.c **** 				break;
 596               		.loc 1 140 0
 597 0300 D701      		movw r26,r14
 598 0302 5A96      		adiw r26,26
 599 0304 8C92      		st X,r8
 141:lib/lufa/LUFA/Drivers/USB/Class/Common/HIDParser.c **** 
 600               		.loc 1 141 0
 601 0306 00C0      		rjmp .L17
 602               	.L28:
 144:lib/lufa/LUFA/Drivers/USB/Class/Common/HIDParser.c **** 
 603               		.loc 1 144 0
 604 0308 582D      		mov r21,r8
 605 030a F701      		movw r30,r14
 606 030c 838E      		std Z+27,r8
 146:lib/lufa/LUFA/Drivers/USB/Class/Common/HIDParser.c **** 				{
 607               		.loc 1 146 0
 608 030e CD57      		subi r28,lo8(-131)
 609 0310 DF4F      		sbci r29,hi8(-131)
 610 0312 A881      		ld r26,Y
 611 0314 B981      		ldd r27,Y+1
 612 0316 C358      		subi r28,lo8(131)
 613 0318 D040      		sbci r29,hi8(131)
 614 031a 8C91      		ld r24,X
 615 031c 8823      		tst r24
 616 031e 01F4      		brne .+2
 617 0320 00C0      		rjmp .L36
 618               	.LBB12:
 150:lib/lufa/LUFA/Drivers/USB/Class/Common/HIDParser.c **** 					{
 619               		.loc 1 150 0
 620 0322 C557      		subi r28,lo8(-139)
 621 0324 DF4F      		sbci r29,hi8(-139)
 622 0326 E881      		ld r30,Y
 623 0328 F981      		ldd r31,Y+1
 624 032a CB58      		subi r28,lo8(139)
 625 032c D040      		sbci r29,hi8(139)
 626 032e 4081      		ld r20,Z
 627 0330 F601      		movw r30,r12
 628 0332 E057      		subi r30,112
 629 0334 FC4F      		sbci r31,-4
 630 0336 20E0      		ldi r18,0
 631 0338 30E0      		ldi r19,0
 632               	.L37:
 633               	.LVL28:
 150:lib/lufa/LUFA/Drivers/USB/Class/Common/HIDParser.c **** 					{
 634               		.loc 1 150 0 is_stmt 0 discriminator 1
 635 033a 2417      		cp r18,r20
 636 033c 00F4      		brsh .L93
 152:lib/lufa/LUFA/Drivers/USB/Class/Common/HIDParser.c **** 						{
 637               		.loc 1 152 0 is_stmt 1
 638 033e C901      		movw r24,r18
 639 0340 6081      		ld r22,Z
 640 0342 2F5F      		subi r18,-1
 641 0344 3F4F      		sbci r19,-1
 642               	.LVL29:
 643 0346 3796      		adiw r30,7
 644 0348 5613      		cpse r21,r22
 645 034a 00C0      		rjmp .L37
 154:lib/lufa/LUFA/Drivers/USB/Class/Common/HIDParser.c **** 							break;
 646               		.loc 1 154 0
 647 034c 67E0      		ldi r22,lo8(7)
 648 034e 70E0      		ldi r23,0
 649 0350 0E94 0000 		call __mulhi3
 650               	.LVL30:
 651 0354 8057      		subi r24,112
 652 0356 9C4F      		sbci r25,-4
 653 0358 9601      		movw r18,r12
 654               	.LVL31:
 655 035a 280F      		add r18,r24
 656 035c 391F      		adc r19,r25
 657 035e E996      		adiw r28,119-62
 658 0360 3FAF      		std Y+63,r19
 659 0362 2EAF      		std Y+62,r18
 660 0364 E997      		sbiw r28,119-62
 661               	.LVL32:
 662 0366 00C0      		rjmp .L36
 663               	.LVL33:
 664               	.L93:
 665               	.LBE12:
 161:lib/lufa/LUFA/Drivers/USB/Class/Common/HIDParser.c **** 						  return HID_PARSE_InsufficientReportIDItems;
 666               		.loc 1 161 0
 667 0368 4A30      		cpi r20,lo8(10)
 668 036a 01F4      		brne .+2
 669 036c 00C0      		rjmp .L94
 164:lib/lufa/LUFA/Drivers/USB/Class/Common/HIDParser.c **** 						memset(CurrReportIDInfo, 0x00, sizeof(HID_ReportSizeInfo_t));
 670               		.loc 1 164 0
 671 036e 81E0      		ldi r24,lo8(1)
 672 0370 840F      		add r24,r20
 673 0372 C158      		subi r28,lo8(-127)
 674 0374 DF4F      		sbci r29,hi8(-127)
 675 0376 A881      		ld r26,Y
 676 0378 B981      		ldd r27,Y+1
 677 037a CF57      		subi r28,lo8(127)
 678 037c D040      		sbci r29,hi8(127)
 679 037e 8C93      		st X,r24
 680 0380 842F      		mov r24,r20
 681 0382 90E0      		ldi r25,0
 682 0384 67E0      		ldi r22,lo8(7)
 683 0386 70E0      		ldi r23,0
 684 0388 0E94 0000 		call __mulhi3
 685 038c 8057      		subi r24,112
 686 038e 9C4F      		sbci r25,-4
 687 0390 F601      		movw r30,r12
 688 0392 E80F      		add r30,r24
 689 0394 F91F      		adc r31,r25
 690 0396 E996      		adiw r28,119-62
 691 0398 FFAF      		std Y+63,r31
 692 039a EEAF      		std Y+62,r30
 693 039c E997      		sbiw r28,119-62
 694               	.LVL34:
 165:lib/lufa/LUFA/Drivers/USB/Class/Common/HIDParser.c **** 					}
 695               		.loc 1 165 0
 696 039e 87E0      		ldi r24,lo8(7)
 697               		0:
 698 03a0 1192      		st Z+,__zero_reg__
 699 03a2 8A95      		dec r24
 700 03a4 01F4      		brne 0b
 701               	.LVL35:
 702               	.L36:
 169:lib/lufa/LUFA/Drivers/USB/Class/Common/HIDParser.c **** 
 703               		.loc 1 169 0
 704 03a6 81E0      		ldi r24,lo8(1)
 705 03a8 CD57      		subi r28,lo8(-131)
 706 03aa DF4F      		sbci r29,hi8(-131)
 707 03ac A881      		ld r26,Y
 708 03ae B981      		ldd r27,Y+1
 709 03b0 C358      		subi r28,lo8(131)
 710 03b2 D040      		sbci r29,hi8(131)
 711 03b4 8C93      		st X,r24
 171:lib/lufa/LUFA/Drivers/USB/Class/Common/HIDParser.c **** 				break;
 712               		.loc 1 171 0
 713 03b6 F701      		movw r30,r14
 714 03b8 838D      		ldd r24,Z+27
 715 03ba E996      		adiw r28,119-62
 716 03bc AEAD      		ldd r26,Y+62
 717 03be BFAD      		ldd r27,Y+63
 718 03c0 E997      		sbiw r28,119-62
 719 03c2 8C93      		st X,r24
 172:lib/lufa/LUFA/Drivers/USB/Class/Common/HIDParser.c **** 
 720               		.loc 1 172 0
 721 03c4 00C0      		rjmp .L17
 722               	.L13:
 175:lib/lufa/LUFA/Drivers/USB/Class/Common/HIDParser.c **** 				  return HID_PARSE_UsageListOverflow;
 723               		.loc 1 175 0
 724 03c6 0830      		cpi r16,lo8(8)
 725 03c8 01F4      		brne .+2
 726 03ca 00C0      		rjmp .L67
 178:lib/lufa/LUFA/Drivers/USB/Class/Common/HIDParser.c **** 				  CurrStateTable->Attributes.Usage.Page = (ReportItemData >> 16);
 727               		.loc 1 178 0
 728 03cc 8330      		cpi r24,lo8(3)
 729 03ce 01F4      		brne .L40
 179:lib/lufa/LUFA/Drivers/USB/Class/Common/HIDParser.c **** 
 730               		.loc 1 179 0
 731 03d0 F701      		movw r30,r14
 732 03d2 B282      		std Z+2,r11
 733 03d4 A182      		std Z+1,r10
 734               	.L40:
 735               	.LVL36:
 181:lib/lufa/LUFA/Drivers/USB/Class/Common/HIDParser.c **** 				break;
 736               		.loc 1 181 0
 737 03d6 E02F      		mov r30,r16
 738 03d8 F0E0      		ldi r31,0
 739 03da EE0F      		lsl r30
 740 03dc FF1F      		rol r31
 741 03de 23E6      		ldi r18,lo8(99)
 742 03e0 30E0      		ldi r19,0
 743 03e2 2C0F      		add r18,r28
 744 03e4 3D1F      		adc r19,r29
 745 03e6 E20F      		add r30,r18
 746 03e8 F31F      		adc r31,r19
 747 03ea 9182      		std Z+1,r9
 748 03ec 8082      		st Z,r8
 749 03ee 0F5F      		subi r16,lo8(-(1))
 750               	.LVL37:
 182:lib/lufa/LUFA/Drivers/USB/Class/Common/HIDParser.c **** 
 751               		.loc 1 182 0
 752 03f0 00C0      		rjmp .L17
 753               	.L30:
 193:lib/lufa/LUFA/Drivers/USB/Class/Common/HIDParser.c **** 				{
 754               		.loc 1 193 0
 755 03f2 E596      		adiw r28,115-62
 756 03f4 8EAD      		ldd r24,Y+62
 757 03f6 9FAD      		ldd r25,Y+63
 758 03f8 E597      		sbiw r28,115-62
 759 03fa 892B      		or r24,r25
 760 03fc 01F4      		brne .L41
 195:lib/lufa/LUFA/Drivers/USB/Class/Common/HIDParser.c **** 				}
 761               		.loc 1 195 0
 762 03fe D601      		movw r26,r12
 763 0400 A75B      		subi r26,-73
 764 0402 BC4F      		sbci r27,-4
 765 0404 E596      		adiw r28,115-62
 766 0406 BFAF      		std Y+63,r27
 767 0408 AEAF      		std Y+62,r26
 768 040a E597      		sbiw r28,115-62
 769               	.LVL38:
 770 040c 00C0      		rjmp .L42
 771               	.LVL39:
 772               	.L41:
 773               	.LBB13:
 201:lib/lufa/LUFA/Drivers/USB/Class/Common/HIDParser.c **** 
 774               		.loc 1 201 0
 775 040e F601      		movw r30,r12
 776 0410 E05B      		subi r30,-80
 777 0412 FC4F      		sbci r31,-4
 778               	.LVL40:
 779               	.L43:
 203:lib/lufa/LUFA/Drivers/USB/Class/Common/HIDParser.c **** 					{
 780               		.loc 1 203 0
 781 0414 8581      		ldd r24,Z+5
 782 0416 9681      		ldd r25,Z+6
 783 0418 892B      		or r24,r25
 784 041a 01F0      		breq .L95
 205:lib/lufa/LUFA/Drivers/USB/Class/Common/HIDParser.c **** 						  return HID_PARSE_InsufficientCollectionPaths;
 785               		.loc 1 205 0
 786 041c C757      		subi r28,lo8(-137)
 787 041e DF4F      		sbci r29,hi8(-137)
 788 0420 2881      		ld r18,Y
 789 0422 3981      		ldd r19,Y+1
 790 0424 C958      		subi r28,lo8(137)
 791 0426 D040      		sbci r29,hi8(137)
 792 0428 E217      		cp r30,r18
 793 042a F307      		cpc r31,r19
 794 042c 01F4      		brne .+2
 795 042e 00C0      		rjmp .L68
 208:lib/lufa/LUFA/Drivers/USB/Class/Common/HIDParser.c **** 					}
 796               		.loc 1 208 0
 797 0430 3796      		adiw r30,7
 798               	.LVL41:
 799 0432 00C0      		rjmp .L43
 800               	.L95:
 211:lib/lufa/LUFA/Drivers/USB/Class/Common/HIDParser.c **** 				}
 801               		.loc 1 211 0
 802 0434 E596      		adiw r28,115-62
 803 0436 8EAD      		ldd r24,Y+62
 804 0438 9FAD      		ldd r25,Y+63
 805 043a E597      		sbiw r28,115-62
 806 043c 9683      		std Z+6,r25
 807 043e 8583      		std Z+5,r24
 808 0440 E596      		adiw r28,115-62
 809 0442 FFAF      		std Y+63,r31
 810 0444 EEAF      		std Y+62,r30
 811 0446 E597      		sbiw r28,115-62
 812               	.LVL42:
 813               	.L42:
 814               	.LBE13:
 214:lib/lufa/LUFA/Drivers/USB/Class/Common/HIDParser.c **** 				CurrCollectionPath->Usage.Page = CurrStateTable->Attributes.Usage.Page;
 815               		.loc 1 214 0
 816 0448 E596      		adiw r28,115-62
 817 044a AEAD      		ldd r26,Y+62
 818 044c BFAD      		ldd r27,Y+63
 819 044e E597      		sbiw r28,115-62
 820 0450 8C92      		st X,r8
 215:lib/lufa/LUFA/Drivers/USB/Class/Common/HIDParser.c **** 
 821               		.loc 1 215 0
 822 0452 F701      		movw r30,r14
 823 0454 8181      		ldd r24,Z+1
 824 0456 9281      		ldd r25,Z+2
 825 0458 1296      		adiw r26,1+1
 826 045a 9C93      		st X,r25
 827 045c 8E93      		st -X,r24
 828 045e 1197      		sbiw r26,1
 217:lib/lufa/LUFA/Drivers/USB/Class/Common/HIDParser.c **** 				{
 829               		.loc 1 217 0
 830 0460 0023      		tst r16
 831 0462 01F0      		breq .L45
 219:lib/lufa/LUFA/Drivers/USB/Class/Common/HIDParser.c **** 
 832               		.loc 1 219 0
 833 0464 A596      		adiw r28,99-62
 834 0466 8EAD      		ldd r24,Y+62
 835 0468 9FAD      		ldd r25,Y+63
 836 046a A597      		sbiw r28,99-62
 837 046c 1496      		adiw r26,3+1
 838 046e 9C93      		st X,r25
 839 0470 8E93      		st -X,r24
 840 0472 1397      		sbiw r26,3
 841               	.LVL43:
 842 0474 FE01      		movw r30,r28
 843 0476 ED59      		subi r30,-99
 844 0478 FF4F      		sbci r31,-1
 845               	.LBB14:
 221:lib/lufa/LUFA/Drivers/USB/Class/Common/HIDParser.c **** 					  UsageList[i - 1] = UsageList[i];
 846               		.loc 1 221 0
 847 047a 81E0      		ldi r24,lo8(1)
 848               	.LVL44:
 849               	.L46:
 221:lib/lufa/LUFA/Drivers/USB/Class/Common/HIDParser.c **** 					  UsageList[i - 1] = UsageList[i];
 850               		.loc 1 221 0 is_stmt 0 discriminator 1
 851 047c 0817      		cp r16,r24
 852 047e 01F0      		breq .L96
 222:lib/lufa/LUFA/Drivers/USB/Class/Common/HIDParser.c **** 
 853               		.loc 1 222 0 is_stmt 1 discriminator 3
 854 0480 2281      		ldd r18,Z+2
 855 0482 3381      		ldd r19,Z+3
 856 0484 2193      		st Z+,r18
 857 0486 3193      		st Z+,r19
 221:lib/lufa/LUFA/Drivers/USB/Class/Common/HIDParser.c **** 					  UsageList[i - 1] = UsageList[i];
 858               		.loc 1 221 0 discriminator 3
 859 0488 8F5F      		subi r24,lo8(-(1))
 860               	.LVL45:
 861 048a 00C0      		rjmp .L46
 862               	.L96:
 863               	.LBE14:
 224:lib/lufa/LUFA/Drivers/USB/Class/Common/HIDParser.c **** 				}
 864               		.loc 1 224 0
 865 048c 0150      		subi r16,lo8(-(-1))
 866               	.LVL46:
 867 048e 00C0      		rjmp .L17
 868               	.LVL47:
 869               	.L45:
 226:lib/lufa/LUFA/Drivers/USB/Class/Common/HIDParser.c **** 				{
 870               		.loc 1 226 0
 871 0490 ED96      		adiw r28,121-60
 872 0492 8CAD      		ldd r24,Y+60
 873 0494 9DAD      		ldd r25,Y+61
 874 0496 AEAD      		ldd r26,Y+62
 875 0498 BFAD      		ldd r27,Y+63
 876 049a ED97      		sbiw r28,121-60
 877 049c 8415      		cp r24,r4
 878 049e 9505      		cpc r25,r5
 879 04a0 A605      		cpc r26,r6
 880 04a2 B705      		cpc r27,r7
 881 04a4 00F4      		brsh .+2
 882 04a6 00C0      		rjmp .L17
 883               	.LVL48:
 228:lib/lufa/LUFA/Drivers/USB/Class/Common/HIDParser.c **** 				}
 884               		.loc 1 228 0
 885 04a8 E596      		adiw r28,115-62
 886 04aa AEAD      		ldd r26,Y+62
 887 04ac BFAD      		ldd r27,Y+63
 888 04ae E597      		sbiw r28,115-62
 889 04b0 1496      		adiw r26,3+1
 890 04b2 5C92      		st X,r5
 891 04b4 4E92      		st -X,r4
 892 04b6 1397      		sbiw r26,3
 893 04b8 BFEF      		ldi r27,-1
 894 04ba 4B1A      		sub r4,r27
 895 04bc 5B0A      		sbc r5,r27
 896 04be 6B0A      		sbc r6,r27
 897 04c0 7B0A      		sbc r7,r27
 898               	.LVL49:
 899 04c2 00C0      		rjmp .L17
 900               	.LVL50:
 901               	.L33:
 234:lib/lufa/LUFA/Drivers/USB/Class/Common/HIDParser.c **** 				  return HID_PARSE_UnexpectedEndCollection;
 902               		.loc 1 234 0
 903 04c4 E596      		adiw r28,115-62
 904 04c6 EEAD      		ldd r30,Y+62
 905 04c8 FFAD      		ldd r31,Y+63
 906 04ca E597      		sbiw r28,115-62
 907 04cc 3097      		sbiw r30,0
 908 04ce 01F4      		brne .+2
 909 04d0 00C0      		rjmp .L69
 237:lib/lufa/LUFA/Drivers/USB/Class/Common/HIDParser.c **** 				break;
 910               		.loc 1 237 0
 911 04d2 2581      		ldd r18,Z+5
 912 04d4 3681      		ldd r19,Z+6
 913 04d6 E596      		adiw r28,115-62
 914 04d8 3FAF      		std Y+63,r19
 915 04da 2EAF      		std Y+62,r18
 916 04dc E597      		sbiw r28,115-62
 917               	.LVL51:
 238:lib/lufa/LUFA/Drivers/USB/Class/Common/HIDParser.c **** 
 918               		.loc 1 238 0
 919 04de 00C0      		rjmp .L17
 920               	.LVL52:
 921               	.L56:
 922               	.LBB15:
 923               	.LBB7:
 287:lib/lufa/LUFA/Drivers/USB/Class/Common/HIDParser.c **** 					       &NewReportItem, sizeof(HID_ReportItem_t));
 924               		.loc 1 287 0
 925 04e0 90E0      		ldi r25,0
 926 04e2 6AE2      		ldi r22,lo8(42)
 927 04e4 70E0      		ldi r23,0
 928 04e6 0E94 0000 		call __mulhi3
 929 04ea 8C0D      		add r24,r12
 930 04ec 9D1D      		adc r25,r13
 931 04ee DC01      		movw r26,r24
 932 04f0 1196      		adiw r26,1
 933 04f2 8AE2      		ldi r24,lo8(42)
 934 04f4 FE01      		movw r30,r28
 935 04f6 F996      		adiw r30,57
 936               		0:
 937 04f8 0190      		ld r0,Z+
 938 04fa 0D92      		st X+,r0
 939 04fc 8A95      		dec r24
 940 04fe 01F4      		brne 0b
 941               		.loc 1 290 0
 942 0500 CB57      		subi r28,lo8(-133)
 943 0502 DF4F      		sbci r29,hi8(-133)
 944 0504 8881      		ld r24,Y
 945 0506 9981      		ldd r25,Y+1
 946 0508 AA81      		ldd r26,Y+2
 947 050a BB81      		ldd r27,Y+3
 948 050c C558      		subi r28,lo8(133)
 949 050e D040      		sbci r29,hi8(133)
 950 0510 892B      		or r24,r25
 951 0512 8A2B      		or r24,r26
 952 0514 8B2B      		or r24,r27
 953 0516 01F4      		brne .+2
 954 0518 00C0      		rjmp .L97
 955               	.L58:
 956               	.LBE7:
 243:lib/lufa/LUFA/Drivers/USB/Class/Common/HIDParser.c **** 				{
 957               		.loc 1 243 0
 958 051a EE96      		adiw r28,125-63
 959 051c BFAD      		ldd r27,Y+63
 960 051e EE97      		sbiw r28,125-63
 961 0520 BF5F      		subi r27,lo8(-(1))
 962 0522 EE96      		adiw r28,125-63
 963 0524 BFAF      		std Y+63,r27
 964 0526 EE97      		sbiw r28,125-63
 965               	.LVL53:
 966               	.L34:
 243:lib/lufa/LUFA/Drivers/USB/Class/Common/HIDParser.c **** 				{
 967               		.loc 1 243 0 is_stmt 0 discriminator 1
 968 0528 F701      		movw r30,r14
 969 052a 828D      		ldd r24,Z+26
 970 052c EE96      		adiw r28,125-63
 971 052e FFAD      		ldd r31,Y+63
 972 0530 EE97      		sbiw r28,125-63
 973 0532 F817      		cp r31,r24
 974 0534 00F0      		brlo .+2
 975 0536 00C0      		rjmp .L17
 976               	.LBB8:
 247:lib/lufa/LUFA/Drivers/USB/Class/Common/HIDParser.c **** 					       &CurrStateTable->Attributes,
 977               		.loc 1 247 0 is_stmt 1
 978 0538 8AE1      		ldi r24,lo8(26)
 979 053a F701      		movw r30,r14
 980 053c DE01      		movw r26,r28
 981 053e AF5B      		subi r26,-65
 982 0540 BF4F      		sbci r27,-1
 983               		0:
 984 0542 0190      		ld r0,Z+
 985 0544 0D92      		st X+,r0
 986 0546 8A95      		dec r24
 987 0548 01F4      		brne 0b
 251:lib/lufa/LUFA/Drivers/USB/Class/Common/HIDParser.c **** 					NewReportItem.CollectionPath = CurrCollectionPath;
 988               		.loc 1 251 0
 989 054a 9DAE      		std Y+61,r9
 990 054c 8CAE      		std Y+60,r8
 252:lib/lufa/LUFA/Drivers/USB/Class/Common/HIDParser.c **** 					NewReportItem.ReportID       = CurrStateTable->ReportID;
 991               		.loc 1 252 0
 992 054e E596      		adiw r28,115-62
 993 0550 8EAD      		ldd r24,Y+62
 994 0552 9FAD      		ldd r25,Y+63
 995 0554 E597      		sbiw r28,115-62
 996 0556 2196      		adiw r28,63-62
 997 0558 9FAF      		std Y+63,r25
 998 055a 8EAF      		std Y+62,r24
 999 055c 2197      		sbiw r28,63-62
 253:lib/lufa/LUFA/Drivers/USB/Class/Common/HIDParser.c **** 
 1000               		.loc 1 253 0
 1001 055e D701      		movw r26,r14
 1002 0560 5B96      		adiw r26,27
 1003 0562 8C91      		ld r24,X
 1004 0564 8EAF      		std Y+62,r24
 255:lib/lufa/LUFA/Drivers/USB/Class/Common/HIDParser.c **** 					{
 1005               		.loc 1 255 0
 1006 0566 0023      		tst r16
 1007 0568 01F0      		breq .L48
 257:lib/lufa/LUFA/Drivers/USB/Class/Common/HIDParser.c **** 
 1008               		.loc 1 257 0
 1009 056a A596      		adiw r28,99-62
 1010 056c 8EAD      		ldd r24,Y+62
 1011 056e 9FAD      		ldd r25,Y+63
 1012 0570 A597      		sbiw r28,99-62
 1013 0572 2696      		adiw r28,68-62
 1014 0574 9FAF      		std Y+63,r25
 1015 0576 8EAF      		std Y+62,r24
 1016 0578 2697      		sbiw r28,68-62
 1017               	.LVL54:
 1018 057a FE01      		movw r30,r28
 1019 057c ED59      		subi r30,-99
 1020 057e FF4F      		sbci r31,-1
 1021               	.LBB5:
 259:lib/lufa/LUFA/Drivers/USB/Class/Common/HIDParser.c **** 						  UsageList[i - 1] = UsageList[i];
 1022               		.loc 1 259 0
 1023 0580 81E0      		ldi r24,lo8(1)
 1024               	.LVL55:
 1025               	.L49:
 259:lib/lufa/LUFA/Drivers/USB/Class/Common/HIDParser.c **** 						  UsageList[i - 1] = UsageList[i];
 1026               		.loc 1 259 0 is_stmt 0 discriminator 1
 1027 0582 0817      		cp r16,r24
 1028 0584 01F0      		breq .L98
 260:lib/lufa/LUFA/Drivers/USB/Class/Common/HIDParser.c **** 
 1029               		.loc 1 260 0 is_stmt 1 discriminator 3
 1030 0586 2281      		ldd r18,Z+2
 1031 0588 3381      		ldd r19,Z+3
 1032 058a 2193      		st Z+,r18
 1033 058c 3193      		st Z+,r19
 259:lib/lufa/LUFA/Drivers/USB/Class/Common/HIDParser.c **** 						  UsageList[i - 1] = UsageList[i];
 1034               		.loc 1 259 0 discriminator 3
 1035 058e 8F5F      		subi r24,lo8(-(1))
 1036               	.LVL56:
 1037 0590 00C0      		rjmp .L49
 1038               	.L98:
 1039               	.LBE5:
 262:lib/lufa/LUFA/Drivers/USB/Class/Common/HIDParser.c **** 					}
 1040               		.loc 1 262 0
 1041 0592 0150      		subi r16,lo8(-(-1))
 1042               	.LVL57:
 1043 0594 00C0      		rjmp .L51
 1044               	.LVL58:
 1045               	.L48:
 264:lib/lufa/LUFA/Drivers/USB/Class/Common/HIDParser.c **** 					{
 1046               		.loc 1 264 0
 1047 0596 ED96      		adiw r28,121-60
 1048 0598 8CAD      		ldd r24,Y+60
 1049 059a 9DAD      		ldd r25,Y+61
 1050 059c AEAD      		ldd r26,Y+62
 1051 059e BFAD      		ldd r27,Y+63
 1052 05a0 ED97      		sbiw r28,121-60
 1053 05a2 8415      		cp r24,r4
 1054 05a4 9505      		cpc r25,r5
 1055 05a6 A605      		cpc r26,r6
 1056 05a8 B705      		cpc r27,r7
 1057 05aa 00F0      		brlo .L51
 1058               	.LVL59:
 266:lib/lufa/LUFA/Drivers/USB/Class/Common/HIDParser.c **** 					}
 1059               		.loc 1 266 0
 1060 05ac 2696      		adiw r28,68-62
 1061 05ae 5FAE      		std Y+63,r5
 1062 05b0 4EAE      		std Y+62,r4
 1063 05b2 2697      		sbiw r28,68-62
 1064 05b4 9FEF      		ldi r25,-1
 1065 05b6 491A      		sub r4,r25
 1066 05b8 590A      		sbc r5,r25
 1067 05ba 690A      		sbc r6,r25
 1068 05bc 790A      		sbc r7,r25
 1069               	.LVL60:
 1070               	.L51:
 271:lib/lufa/LUFA/Drivers/USB/Class/Common/HIDParser.c **** 					  NewReportItem.ItemType = HID_REPORT_ITEM_In;
 1071               		.loc 1 271 0
 1072 05be 1038      		cpi r17,lo8(-128)
 1073 05c0 01F4      		brne .L52
 272:lib/lufa/LUFA/Drivers/USB/Class/Common/HIDParser.c **** 					else if (ItemTypeTag == HID_RI_OUTPUT(0))
 1074               		.loc 1 272 0
 1075 05c2 1BAE      		std Y+59,__zero_reg__
 1076 05c4 00C0      		rjmp .L53
 1077               	.L52:
 273:lib/lufa/LUFA/Drivers/USB/Class/Common/HIDParser.c **** 					  NewReportItem.ItemType = HID_REPORT_ITEM_Out;
 1078               		.loc 1 273 0
 1079 05c6 1039      		cpi r17,lo8(-112)
 1080 05c8 01F4      		brne .L54
 274:lib/lufa/LUFA/Drivers/USB/Class/Common/HIDParser.c **** 					else
 1081               		.loc 1 274 0
 1082 05ca A1E0      		ldi r26,lo8(1)
 1083 05cc ABAF      		std Y+59,r26
 1084 05ce 00C0      		rjmp .L53
 1085               	.L54:
 276:lib/lufa/LUFA/Drivers/USB/Class/Common/HIDParser.c **** 
 1086               		.loc 1 276 0
 1087 05d0 B2E0      		ldi r27,lo8(2)
 1088 05d2 BBAF      		std Y+59,r27
 1089               	.L53:
 278:lib/lufa/LUFA/Drivers/USB/Class/Common/HIDParser.c **** 
 1090               		.loc 1 278 0
 1091 05d4 EBAD      		ldd r30,Y+59
 1092 05d6 F0E0      		ldi r31,0
 1093 05d8 EE0F      		lsl r30
 1094 05da FF1F      		rol r31
 1095 05dc E996      		adiw r28,119-62
 1096 05de 2EAD      		ldd r18,Y+62
 1097 05e0 3FAD      		ldd r19,Y+63
 1098 05e2 E997      		sbiw r28,119-62
 1099 05e4 E20F      		add r30,r18
 1100 05e6 F31F      		adc r31,r19
 1101 05e8 8181      		ldd r24,Z+1
 1102 05ea 9281      		ldd r25,Z+2
 1103 05ec 9AAF      		std Y+58,r25
 1104 05ee 89AF      		std Y+57,r24
 280:lib/lufa/LUFA/Drivers/USB/Class/Common/HIDParser.c **** 
 1105               		.loc 1 280 0
 1106 05f0 D701      		movw r26,r14
 1107 05f2 2C91      		ld r18,X
 1108 05f4 8181      		ldd r24,Z+1
 1109 05f6 9281      		ldd r25,Z+2
 1110 05f8 820F      		add r24,r18
 1111 05fa 911D      		adc r25,__zero_reg__
 1112 05fc 9283      		std Z+2,r25
 1113 05fe 8183      		std Z+1,r24
 282:lib/lufa/LUFA/Drivers/USB/Class/Common/HIDParser.c **** 
 1114               		.loc 1 282 0
 1115 0600 EBAD      		ldd r30,Y+59
 1116 0602 F0E0      		ldi r31,0
 1117 0604 EE0F      		lsl r30
 1118 0606 FF1F      		rol r31
 1119 0608 E996      		adiw r28,119-62
 1120 060a 2EAD      		ldd r18,Y+62
 1121 060c 3FAD      		ldd r19,Y+63
 1122 060e E997      		sbiw r28,119-62
 1123 0610 E20F      		add r30,r18
 1124 0612 F31F      		adc r31,r19
 1125 0614 CF57      		subi r28,lo8(-129)
 1126 0616 DF4F      		sbci r29,hi8(-129)
 1127 0618 A881      		ld r26,Y
 1128 061a B981      		ldd r27,Y+1
 1129 061c C158      		subi r28,lo8(129)
 1130 061e D040      		sbci r29,hi8(129)
 1131 0620 2D91      		ld r18,X+
 1132 0622 3C91      		ld r19,X
 1133 0624 8181      		ldd r24,Z+1
 1134 0626 9281      		ldd r25,Z+2
 1135 0628 8217      		cp r24,r18
 1136 062a 9307      		cpc r25,r19
 1137 062c 00F4      		brsh .L55
 1138 062e C901      		movw r24,r18
 1139               	.L55:
 1140 0630 CF57      		subi r28,lo8(-129)
 1141 0632 DF4F      		sbci r29,hi8(-129)
 1142 0634 E881      		ld r30,Y
 1143 0636 F981      		ldd r31,Y+1
 1144 0638 C158      		subi r28,lo8(129)
 1145 063a D040      		sbci r29,hi8(129)
 1146 063c 9183      		std Z+1,r25
 1147 063e 8083      		st Z,r24
 284:lib/lufa/LUFA/Drivers/USB/Class/Common/HIDParser.c **** 					  return HID_PARSE_InsufficientReportItems;
 1148               		.loc 1 284 0
 1149 0640 D601      		movw r26,r12
 1150 0642 8C91      		ld r24,X
 1151 0644 8431      		cpi r24,lo8(20)
 1152 0646 01F0      		breq .+2
 1153 0648 00C0      		rjmp .L56
 285:lib/lufa/LUFA/Drivers/USB/Class/Common/HIDParser.c **** 
 1154               		.loc 1 285 0
 1155 064a 83E0      		ldi r24,lo8(3)
 1156 064c 00C0      		rjmp .L89
 1157               	.L97:
 1158               		.loc 1 290 0 discriminator 1
 1159 064e CE01      		movw r24,r28
 1160 0650 C996      		adiw r24,57
 1161 0652 0E94 0000 		call CALLBACK_HIDParser_FilterHIDReportItem
 1162               	.LVL61:
 1163 0656 8823      		tst r24
 1164 0658 01F4      		brne .+2
 1165 065a 00C0      		rjmp .L58
 291:lib/lufa/LUFA/Drivers/USB/Class/Common/HIDParser.c **** 					  ParserData->TotalReportItems++;
 1166               		.loc 1 291 0
 1167 065c D601      		movw r26,r12
 1168 065e 8C91      		ld r24,X
 1169 0660 8F5F      		subi r24,lo8(-(1))
 1170 0662 8C93      		st X,r24
 1171 0664 00C0      		rjmp .L58
 1172               	.LVL62:
 1173               	.L17:
 1174               	.LBE8:
 1175               	.LBE15:
 292:lib/lufa/LUFA/Drivers/USB/Class/Common/HIDParser.c **** 				}
 293:lib/lufa/LUFA/Drivers/USB/Class/Common/HIDParser.c **** 
 294:lib/lufa/LUFA/Drivers/USB/Class/Common/HIDParser.c **** 				break;
 295:lib/lufa/LUFA/Drivers/USB/Class/Common/HIDParser.c **** 
 296:lib/lufa/LUFA/Drivers/USB/Class/Common/HIDParser.c **** 			default:
 297:lib/lufa/LUFA/Drivers/USB/Class/Common/HIDParser.c **** 				break;
 298:lib/lufa/LUFA/Drivers/USB/Class/Common/HIDParser.c **** 		}
 299:lib/lufa/LUFA/Drivers/USB/Class/Common/HIDParser.c **** 
 300:lib/lufa/LUFA/Drivers/USB/Class/Common/HIDParser.c **** 		if ((HIDReportItem & HID_RI_TYPE_MASK) == HID_RI_TYPE_MAIN)
 1176               		.loc 1 300 0
 1177 0666 EF96      		adiw r28,126-63
 1178 0668 8FAD      		ldd r24,Y+63
 1179 066a EF97      		sbiw r28,126-63
 1180 066c 8C70      		andi r24,lo8(12)
 1181 066e 01F0      		breq .+2
 1182 0670 00C0      		rjmp .L2
 301:lib/lufa/LUFA/Drivers/USB/Class/Common/HIDParser.c **** 		{
 302:lib/lufa/LUFA/Drivers/USB/Class/Common/HIDParser.c **** 			UsageMinMax.Minimum = 0;
 303:lib/lufa/LUFA/Drivers/USB/Class/Common/HIDParser.c **** 			UsageMinMax.Maximum = 0;
 1183               		.loc 1 303 0
 1184 0672 ED96      		adiw r28,121-60
 1185 0674 1CAE      		std Y+60,__zero_reg__
 1186 0676 1DAE      		std Y+61,__zero_reg__
 1187 0678 1EAE      		std Y+62,__zero_reg__
 1188 067a 1FAE      		std Y+63,__zero_reg__
 1189 067c ED97      		sbiw r28,121-60
 1190               	.LVL63:
 302:lib/lufa/LUFA/Drivers/USB/Class/Common/HIDParser.c **** 			UsageMinMax.Maximum = 0;
 1191               		.loc 1 302 0
 1192 067e 412C      		mov r4,__zero_reg__
 1193 0680 512C      		mov r5,__zero_reg__
 1194 0682 3201      		movw r6,r4
 1195               	.LVL64:
 304:lib/lufa/LUFA/Drivers/USB/Class/Common/HIDParser.c **** 			UsageListSize       = 0;
 1196               		.loc 1 304 0
 1197 0684 00E0      		ldi r16,0
 1198               	.LVL65:
 1199 0686 00C0      		rjmp .L2
 1200               	.LVL66:
 1201               	.L92:
 1202               	.LBE17:
 305:lib/lufa/LUFA/Drivers/USB/Class/Common/HIDParser.c **** 		}
 306:lib/lufa/LUFA/Drivers/USB/Class/Common/HIDParser.c **** 	}
 307:lib/lufa/LUFA/Drivers/USB/Class/Common/HIDParser.c **** 
 308:lib/lufa/LUFA/Drivers/USB/Class/Common/HIDParser.c **** 	if (!(ParserData->TotalReportItems))
 1203               		.loc 1 308 0
 1204 0688 D601      		movw r26,r12
 1205 068a 8C91      		ld r24,X
 1206 068c 8823      		tst r24
 1207 068e 01F0      		breq .L70
 309:lib/lufa/LUFA/Drivers/USB/Class/Common/HIDParser.c **** 	  return HID_PARSE_NoUnfilteredReportItems;
 310:lib/lufa/LUFA/Drivers/USB/Class/Common/HIDParser.c **** 
 311:lib/lufa/LUFA/Drivers/USB/Class/Common/HIDParser.c **** 	return HID_PARSE_Successful;
 1208               		.loc 1 311 0
 1209 0690 80E0      		ldi r24,0
 1210 0692 00C0      		rjmp .L89
 1211               	.LVL67:
 1212               	.L65:
 1213               	.LBB18:
  91:lib/lufa/LUFA/Drivers/USB/Class/Common/HIDParser.c **** 
 1214               		.loc 1 91 0
 1215 0694 81E0      		ldi r24,lo8(1)
 1216 0696 00C0      		rjmp .L89
 1217               	.L66:
 102:lib/lufa/LUFA/Drivers/USB/Class/Common/HIDParser.c **** 
 1218               		.loc 1 102 0
 1219 0698 82E0      		ldi r24,lo8(2)
 1220 069a 00C0      		rjmp .L89
 1221               	.L67:
 176:lib/lufa/LUFA/Drivers/USB/Class/Common/HIDParser.c **** 
 1222               		.loc 1 176 0
 1223 069c 86E0      		ldi r24,lo8(6)
 1224 069e 00C0      		rjmp .L89
 1225               	.LVL68:
 1226               	.L68:
 1227               	.LBB16:
 206:lib/lufa/LUFA/Drivers/USB/Class/Common/HIDParser.c **** 
 1228               		.loc 1 206 0
 1229 06a0 85E0      		ldi r24,lo8(5)
 1230 06a2 00C0      		rjmp .L89
 1231               	.LVL69:
 1232               	.L69:
 1233               	.LBE16:
 235:lib/lufa/LUFA/Drivers/USB/Class/Common/HIDParser.c **** 
 1234               		.loc 1 235 0
 1235 06a4 84E0      		ldi r24,lo8(4)
 1236 06a6 00C0      		rjmp .L89
 1237               	.LVL70:
 1238               	.L70:
 1239               	.LBE18:
 309:lib/lufa/LUFA/Drivers/USB/Class/Common/HIDParser.c **** 
 1240               		.loc 1 309 0
 1241 06a8 88E0      		ldi r24,lo8(8)
 1242 06aa 00C0      		rjmp .L89
 1243               	.LVL71:
 1244               	.L94:
 1245               	.LBB19:
 162:lib/lufa/LUFA/Drivers/USB/Class/Common/HIDParser.c **** 
 1246               		.loc 1 162 0
 1247 06ac 87E0      		ldi r24,lo8(7)
 1248               	.LVL72:
 1249               	.L89:
 1250               	/* epilogue start */
 1251               	.LBE19:
 312:lib/lufa/LUFA/Drivers/USB/Class/Common/HIDParser.c **** }
 1252               		.loc 1 312 0
 1253 06ae C457      		subi r28,116
 1254 06b0 DF4F      		sbci r29,-1
 1255 06b2 0FB6      		in __tmp_reg__,__SREG__
 1256 06b4 F894      		cli
 1257 06b6 DEBF      		out __SP_H__,r29
 1258 06b8 0FBE      		out __SREG__,__tmp_reg__
 1259 06ba CDBF      		out __SP_L__,r28
 1260 06bc DF91      		pop r29
 1261 06be CF91      		pop r28
 1262 06c0 1F91      		pop r17
 1263 06c2 0F91      		pop r16
 1264               	.LVL73:
 1265 06c4 FF90      		pop r15
 1266 06c6 EF90      		pop r14
 1267               	.LVL74:
 1268 06c8 DF90      		pop r13
 1269 06ca CF90      		pop r12
 1270               	.LVL75:
 1271 06cc BF90      		pop r11
 1272 06ce AF90      		pop r10
 1273 06d0 9F90      		pop r9
 1274 06d2 8F90      		pop r8
 1275 06d4 7F90      		pop r7
 1276 06d6 6F90      		pop r6
 1277 06d8 5F90      		pop r5
 1278 06da 4F90      		pop r4
 1279               	.LVL76:
 1280 06dc 3F90      		pop r3
 1281 06de 2F90      		pop r2
 1282               	.LVL77:
 1283 06e0 0895      		ret
 1284               		.cfi_endproc
 1285               	.LFE16:
 1287               		.section	.text.USB_GetHIDReportItemInfo,"ax",@progbits
 1288               	.global	USB_GetHIDReportItemInfo
 1290               	USB_GetHIDReportItemInfo:
 1291               	.LFB17:
 313:lib/lufa/LUFA/Drivers/USB/Class/Common/HIDParser.c **** 
 314:lib/lufa/LUFA/Drivers/USB/Class/Common/HIDParser.c **** bool USB_GetHIDReportItemInfo(const uint8_t* ReportData,
 315:lib/lufa/LUFA/Drivers/USB/Class/Common/HIDParser.c ****                               HID_ReportItem_t* const ReportItem)
 316:lib/lufa/LUFA/Drivers/USB/Class/Common/HIDParser.c **** {
 1292               		.loc 1 316 0
 1293               		.cfi_startproc
 1294               	.LVL78:
 1295 0000 8F92      		push r8
 1296               	.LCFI20:
 1297               		.cfi_def_cfa_offset 3
 1298               		.cfi_offset 8, -2
 1299 0002 9F92      		push r9
 1300               	.LCFI21:
 1301               		.cfi_def_cfa_offset 4
 1302               		.cfi_offset 9, -3
 1303 0004 AF92      		push r10
 1304               	.LCFI22:
 1305               		.cfi_def_cfa_offset 5
 1306               		.cfi_offset 10, -4
 1307 0006 BF92      		push r11
 1308               	.LCFI23:
 1309               		.cfi_def_cfa_offset 6
 1310               		.cfi_offset 11, -5
 1311 0008 CF92      		push r12
 1312               	.LCFI24:
 1313               		.cfi_def_cfa_offset 7
 1314               		.cfi_offset 12, -6
 1315 000a DF92      		push r13
 1316               	.LCFI25:
 1317               		.cfi_def_cfa_offset 8
 1318               		.cfi_offset 13, -7
 1319 000c EF92      		push r14
 1320               	.LCFI26:
 1321               		.cfi_def_cfa_offset 9
 1322               		.cfi_offset 14, -8
 1323 000e FF92      		push r15
 1324               	.LCFI27:
 1325               		.cfi_def_cfa_offset 10
 1326               		.cfi_offset 15, -9
 1327               	/* prologue: function */
 1328               	/* frame size = 0 */
 1329               	/* stack size = 8 */
 1330               	.L__stack_usage = 8
 1331 0010 FB01      		movw r30,r22
 317:lib/lufa/LUFA/Drivers/USB/Class/Common/HIDParser.c **** 	if (ReportItem == NULL)
 1332               		.loc 1 317 0
 1333 0012 3097      		sbiw r30,0
 1334 0014 01F4      		brne .+2
 1335 0016 00C0      		rjmp .L106
 1336               	.LVL79:
 318:lib/lufa/LUFA/Drivers/USB/Class/Common/HIDParser.c **** 	  return false;
 319:lib/lufa/LUFA/Drivers/USB/Class/Common/HIDParser.c **** 
 320:lib/lufa/LUFA/Drivers/USB/Class/Common/HIDParser.c **** 	uint16_t DataBitsRem  = ReportItem->Attributes.BitSize;
 321:lib/lufa/LUFA/Drivers/USB/Class/Common/HIDParser.c **** 	uint16_t CurrentBit   = ReportItem->BitOffset;
 322:lib/lufa/LUFA/Drivers/USB/Class/Common/HIDParser.c **** 	uint32_t BitMask      = (1 << 0);
 323:lib/lufa/LUFA/Drivers/USB/Class/Common/HIDParser.c **** 
 324:lib/lufa/LUFA/Drivers/USB/Class/Common/HIDParser.c **** 	if (ReportItem->ReportID)
 1337               		.loc 1 324 0
 1338 0018 2581      		ldd r18,Z+5
 1339 001a 2223      		tst r18
 1340 001c 01F0      		breq .L101
 325:lib/lufa/LUFA/Drivers/USB/Class/Common/HIDParser.c **** 	{
 326:lib/lufa/LUFA/Drivers/USB/Class/Common/HIDParser.c **** 		if (ReportItem->ReportID != ReportData[0])
 1341               		.loc 1 326 0
 1342 001e DC01      		movw r26,r24
 1343 0020 3C91      		ld r19,X
 1344 0022 2313      		cpse r18,r19
 1345 0024 00C0      		rjmp .L106
 327:lib/lufa/LUFA/Drivers/USB/Class/Common/HIDParser.c **** 		  return false;
 328:lib/lufa/LUFA/Drivers/USB/Class/Common/HIDParser.c **** 
 329:lib/lufa/LUFA/Drivers/USB/Class/Common/HIDParser.c **** 		ReportData++;
 1346               		.loc 1 329 0
 1347 0026 0196      		adiw r24,1
 1348               	.LVL80:
 1349               	.L101:
 320:lib/lufa/LUFA/Drivers/USB/Class/Common/HIDParser.c **** 	uint16_t CurrentBit   = ReportItem->BitOffset;
 1350               		.loc 1 320 0
 1351 0028 2085      		ldd r18,Z+8
 1352 002a 30E0      		ldi r19,0
 321:lib/lufa/LUFA/Drivers/USB/Class/Common/HIDParser.c **** 	uint32_t BitMask      = (1 << 0);
 1353               		.loc 1 321 0
 1354 002c 6081      		ld r22,Z
 1355 002e 7181      		ldd r23,Z+1
 1356               	.LVL81:
 330:lib/lufa/LUFA/Drivers/USB/Class/Common/HIDParser.c **** 	}
 331:lib/lufa/LUFA/Drivers/USB/Class/Common/HIDParser.c **** 
 332:lib/lufa/LUFA/Drivers/USB/Class/Common/HIDParser.c **** 	ReportItem->PreviousValue = ReportItem->Value;
 1357               		.loc 1 332 0
 1358 0030 C2A0      		ldd r12,Z+34
 1359 0032 D3A0      		ldd r13,Z+35
 1360 0034 E4A0      		ldd r14,Z+36
 1361 0036 F5A0      		ldd r15,Z+37
 1362 0038 C6A2      		std Z+38,r12
 1363 003a D7A2      		std Z+39,r13
 1364 003c E0A6      		std Z+40,r14
 1365 003e F1A6      		std Z+41,r15
 333:lib/lufa/LUFA/Drivers/USB/Class/Common/HIDParser.c **** 	ReportItem->Value = 0;
 1366               		.loc 1 333 0
 1367 0040 12A2      		std Z+34,__zero_reg__
 1368 0042 13A2      		std Z+35,__zero_reg__
 1369 0044 14A2      		std Z+36,__zero_reg__
 1370 0046 15A2      		std Z+37,__zero_reg__
 322:lib/lufa/LUFA/Drivers/USB/Class/Common/HIDParser.c **** 
 1371               		.loc 1 322 0
 1372 0048 C12C      		mov r12,__zero_reg__
 1373 004a D12C      		mov r13,__zero_reg__
 1374 004c 7601      		movw r14,r12
 1375 004e C394      		inc r12
 1376               	.LVL82:
 1377               	.L102:
 334:lib/lufa/LUFA/Drivers/USB/Class/Common/HIDParser.c **** 
 335:lib/lufa/LUFA/Drivers/USB/Class/Common/HIDParser.c **** 	while (DataBitsRem--)
 1378               		.loc 1 335 0
 1379               	.LVL83:
 1380 0050 2150      		subi r18,1
 1381 0052 3109      		sbc r19,__zero_reg__
 1382 0054 00F0      		brcs .L113
 336:lib/lufa/LUFA/Drivers/USB/Class/Common/HIDParser.c **** 	{
 337:lib/lufa/LUFA/Drivers/USB/Class/Common/HIDParser.c **** 		if (ReportData[CurrentBit / 8] & (1 << (CurrentBit % 8)))
 1383               		.loc 1 337 0
 1384 0056 DB01      		movw r26,r22
 1385 0058 53E0      		ldi r21,3
 1386               		1:
 1387 005a B695      		lsr r27
 1388 005c A795      		ror r26
 1389 005e 5A95      		dec r21
 1390 0060 01F4      		brne 1b
 1391 0062 A80F      		add r26,r24
 1392 0064 B91F      		adc r27,r25
 1393 0066 4C91      		ld r20,X
 1394 0068 50E0      		ldi r21,0
 1395 006a DB01      		movw r26,r22
 1396 006c A770      		andi r26,7
 1397 006e BB27      		clr r27
 1398 0070 00C0      		rjmp 2f
 1399               		1:
 1400 0072 5595      		asr r21
 1401 0074 4795      		ror r20
 1402               		2:
 1403 0076 AA95      		dec r26
 1404 0078 02F4      		brpl 1b
 1405 007a 40FF      		sbrs r20,0
 1406 007c 00C0      		rjmp .L103
 338:lib/lufa/LUFA/Drivers/USB/Class/Common/HIDParser.c **** 		  ReportItem->Value |= BitMask;
 1407               		.loc 1 338 0
 1408 007e 82A0      		ldd r8,Z+34
 1409 0080 93A0      		ldd r9,Z+35
 1410 0082 A4A0      		ldd r10,Z+36
 1411 0084 B5A0      		ldd r11,Z+37
 1412 0086 8C28      		or r8,r12
 1413 0088 9D28      		or r9,r13
 1414 008a AE28      		or r10,r14
 1415 008c BF28      		or r11,r15
 1416 008e 82A2      		std Z+34,r8
 1417 0090 93A2      		std Z+35,r9
 1418 0092 A4A2      		std Z+36,r10
 1419 0094 B5A2      		std Z+37,r11
 1420               	.L103:
 339:lib/lufa/LUFA/Drivers/USB/Class/Common/HIDParser.c **** 
 340:lib/lufa/LUFA/Drivers/USB/Class/Common/HIDParser.c **** 		CurrentBit++;
 1421               		.loc 1 340 0
 1422 0096 6F5F      		subi r22,-1
 1423 0098 7F4F      		sbci r23,-1
 1424               	.LVL84:
 341:lib/lufa/LUFA/Drivers/USB/Class/Common/HIDParser.c **** 		BitMask <<= 1;
 1425               		.loc 1 341 0
 1426 009a CC0C      		lsl r12
 1427 009c DD1C      		rol r13
 1428 009e EE1C      		rol r14
 1429 00a0 FF1C      		rol r15
 1430               	.LVL85:
 1431 00a2 00C0      		rjmp .L102
 1432               	.L113:
 342:lib/lufa/LUFA/Drivers/USB/Class/Common/HIDParser.c **** 	}
 343:lib/lufa/LUFA/Drivers/USB/Class/Common/HIDParser.c **** 
 344:lib/lufa/LUFA/Drivers/USB/Class/Common/HIDParser.c **** 	return true;
 1433               		.loc 1 344 0
 1434 00a4 81E0      		ldi r24,lo8(1)
 1435               	.LVL86:
 1436 00a6 00C0      		rjmp .L100
 1437               	.LVL87:
 1438               	.L106:
 318:lib/lufa/LUFA/Drivers/USB/Class/Common/HIDParser.c **** 
 1439               		.loc 1 318 0
 1440 00a8 80E0      		ldi r24,0
 1441               	.LVL88:
 1442               	.L100:
 1443               	/* epilogue start */
 345:lib/lufa/LUFA/Drivers/USB/Class/Common/HIDParser.c **** }
 1444               		.loc 1 345 0
 1445 00aa FF90      		pop r15
 1446 00ac EF90      		pop r14
 1447 00ae DF90      		pop r13
 1448 00b0 CF90      		pop r12
 1449 00b2 BF90      		pop r11
 1450 00b4 AF90      		pop r10
 1451 00b6 9F90      		pop r9
 1452 00b8 8F90      		pop r8
 1453 00ba 0895      		ret
 1454               		.cfi_endproc
 1455               	.LFE17:
 1457               		.section	.text.USB_SetHIDReportItemInfo,"ax",@progbits
 1458               	.global	USB_SetHIDReportItemInfo
 1460               	USB_SetHIDReportItemInfo:
 1461               	.LFB18:
 346:lib/lufa/LUFA/Drivers/USB/Class/Common/HIDParser.c **** 
 347:lib/lufa/LUFA/Drivers/USB/Class/Common/HIDParser.c **** void USB_SetHIDReportItemInfo(uint8_t* ReportData,
 348:lib/lufa/LUFA/Drivers/USB/Class/Common/HIDParser.c ****                               HID_ReportItem_t* const ReportItem)
 349:lib/lufa/LUFA/Drivers/USB/Class/Common/HIDParser.c **** {
 1462               		.loc 1 349 0
 1463               		.cfi_startproc
 1464               	.LVL89:
 1465 0000 8F92      		push r8
 1466               	.LCFI28:
 1467               		.cfi_def_cfa_offset 3
 1468               		.cfi_offset 8, -2
 1469 0002 9F92      		push r9
 1470               	.LCFI29:
 1471               		.cfi_def_cfa_offset 4
 1472               		.cfi_offset 9, -3
 1473 0004 AF92      		push r10
 1474               	.LCFI30:
 1475               		.cfi_def_cfa_offset 5
 1476               		.cfi_offset 10, -4
 1477 0006 BF92      		push r11
 1478               	.LCFI31:
 1479               		.cfi_def_cfa_offset 6
 1480               		.cfi_offset 11, -5
 1481 0008 CF92      		push r12
 1482               	.LCFI32:
 1483               		.cfi_def_cfa_offset 7
 1484               		.cfi_offset 12, -6
 1485 000a DF92      		push r13
 1486               	.LCFI33:
 1487               		.cfi_def_cfa_offset 8
 1488               		.cfi_offset 13, -7
 1489 000c EF92      		push r14
 1490               	.LCFI34:
 1491               		.cfi_def_cfa_offset 9
 1492               		.cfi_offset 14, -8
 1493 000e FF92      		push r15
 1494               	.LCFI35:
 1495               		.cfi_def_cfa_offset 10
 1496               		.cfi_offset 15, -9
 1497 0010 0F93      		push r16
 1498               	.LCFI36:
 1499               		.cfi_def_cfa_offset 11
 1500               		.cfi_offset 16, -10
 1501 0012 1F93      		push r17
 1502               	.LCFI37:
 1503               		.cfi_def_cfa_offset 12
 1504               		.cfi_offset 17, -11
 1505 0014 CF93      		push r28
 1506               	.LCFI38:
 1507               		.cfi_def_cfa_offset 13
 1508               		.cfi_offset 28, -12
 1509 0016 DF93      		push r29
 1510               	.LCFI39:
 1511               		.cfi_def_cfa_offset 14
 1512               		.cfi_offset 29, -13
 1513               	/* prologue: function */
 1514               	/* frame size = 0 */
 1515               	/* stack size = 12 */
 1516               	.L__stack_usage = 12
 1517 0018 FB01      		movw r30,r22
 350:lib/lufa/LUFA/Drivers/USB/Class/Common/HIDParser.c **** 	if (ReportItem == NULL)
 1518               		.loc 1 350 0
 1519 001a 3097      		sbiw r30,0
 1520 001c 01F4      		brne .+2
 1521 001e 00C0      		rjmp .L114
 351:lib/lufa/LUFA/Drivers/USB/Class/Common/HIDParser.c **** 	  return;
 352:lib/lufa/LUFA/Drivers/USB/Class/Common/HIDParser.c **** 
 353:lib/lufa/LUFA/Drivers/USB/Class/Common/HIDParser.c **** 	uint16_t DataBitsRem  = ReportItem->Attributes.BitSize;
 1522               		.loc 1 353 0
 1523 0020 2085      		ldd r18,Z+8
 1524 0022 30E0      		ldi r19,0
 1525               	.LVL90:
 354:lib/lufa/LUFA/Drivers/USB/Class/Common/HIDParser.c **** 	uint16_t CurrentBit   = ReportItem->BitOffset;
 1526               		.loc 1 354 0
 1527 0024 4081      		ld r20,Z
 1528 0026 5181      		ldd r21,Z+1
 1529               	.LVL91:
 355:lib/lufa/LUFA/Drivers/USB/Class/Common/HIDParser.c **** 	uint32_t BitMask      = (1 << 0);
 356:lib/lufa/LUFA/Drivers/USB/Class/Common/HIDParser.c **** 
 357:lib/lufa/LUFA/Drivers/USB/Class/Common/HIDParser.c **** 	if (ReportItem->ReportID)
 1530               		.loc 1 357 0
 1531 0028 6581      		ldd r22,Z+5
 1532               	.LVL92:
 1533 002a 6623      		tst r22
 1534 002c 01F0      		breq .L116
 358:lib/lufa/LUFA/Drivers/USB/Class/Common/HIDParser.c **** 	{
 359:lib/lufa/LUFA/Drivers/USB/Class/Common/HIDParser.c **** 		ReportData[0] = ReportItem->ReportID;
 1535               		.loc 1 359 0
 1536 002e DC01      		movw r26,r24
 1537 0030 6D93      		st X+,r22
 1538 0032 CD01      		movw r24,r26
 1539               	.LVL93:
 1540               	.L116:
 360:lib/lufa/LUFA/Drivers/USB/Class/Common/HIDParser.c **** 		ReportData++;
 361:lib/lufa/LUFA/Drivers/USB/Class/Common/HIDParser.c **** 	}
 362:lib/lufa/LUFA/Drivers/USB/Class/Common/HIDParser.c **** 
 363:lib/lufa/LUFA/Drivers/USB/Class/Common/HIDParser.c **** 	ReportItem->PreviousValue = ReportItem->Value;
 1541               		.loc 1 363 0
 1542 0034 C2A0      		ldd r12,Z+34
 1543 0036 D3A0      		ldd r13,Z+35
 1544 0038 E4A0      		ldd r14,Z+36
 1545 003a F5A0      		ldd r15,Z+37
 1546 003c C6A2      		std Z+38,r12
 1547 003e D7A2      		std Z+39,r13
 1548 0040 E0A6      		std Z+40,r14
 1549 0042 F1A6      		std Z+41,r15
 355:lib/lufa/LUFA/Drivers/USB/Class/Common/HIDParser.c **** 
 1550               		.loc 1 355 0
 1551 0044 C12C      		mov r12,__zero_reg__
 1552 0046 D12C      		mov r13,__zero_reg__
 1553 0048 7601      		movw r14,r12
 1554 004a C394      		inc r12
 364:lib/lufa/LUFA/Drivers/USB/Class/Common/HIDParser.c **** 
 365:lib/lufa/LUFA/Drivers/USB/Class/Common/HIDParser.c **** 	while (DataBitsRem--)
 366:lib/lufa/LUFA/Drivers/USB/Class/Common/HIDParser.c **** 	{
 367:lib/lufa/LUFA/Drivers/USB/Class/Common/HIDParser.c **** 		if (ReportItem->Value & BitMask)
 368:lib/lufa/LUFA/Drivers/USB/Class/Common/HIDParser.c **** 		  ReportData[CurrentBit / 8] |= (1 << (CurrentBit % 8));
 1555               		.loc 1 368 0
 1556 004c C1E0      		ldi r28,lo8(1)
 1557 004e D0E0      		ldi r29,0
 1558               	.LVL94:
 1559               	.L117:
 365:lib/lufa/LUFA/Drivers/USB/Class/Common/HIDParser.c **** 	{
 1560               		.loc 1 365 0
 1561               	.LVL95:
 1562 0050 2150      		subi r18,1
 1563 0052 3109      		sbc r19,__zero_reg__
 1564 0054 00F0      		brcs .L114
 367:lib/lufa/LUFA/Drivers/USB/Class/Common/HIDParser.c **** 		  ReportData[CurrentBit / 8] |= (1 << (CurrentBit % 8));
 1565               		.loc 1 367 0
 1566 0056 82A0      		ldd r8,Z+34
 1567 0058 93A0      		ldd r9,Z+35
 1568 005a A4A0      		ldd r10,Z+36
 1569 005c B5A0      		ldd r11,Z+37
 1570 005e 8C20      		and r8,r12
 1571 0060 9D20      		and r9,r13
 1572 0062 AE20      		and r10,r14
 1573 0064 BF20      		and r11,r15
 1574 0066 8928      		or r8,r9
 1575 0068 8A28      		or r8,r10
 1576 006a 8B28      		or r8,r11
 1577 006c 01F0      		breq .L118
 1578               		.loc 1 368 0
 1579 006e DA01      		movw r26,r20
 1580 0070 73E0      		ldi r23,3
 1581               		1:
 1582 0072 B695      		lsr r27
 1583 0074 A795      		ror r26
 1584 0076 7A95      		dec r23
 1585 0078 01F4      		brne 1b
 1586 007a A80F      		add r26,r24
 1587 007c B91F      		adc r27,r25
 1588 007e BA01      		movw r22,r20
 1589 0080 6770      		andi r22,7
 1590 0082 7727      		clr r23
 1591 0084 8E01      		movw r16,r28
 1592 0086 00C0      		rjmp 2f
 1593               		1:
 1594 0088 000F      		lsl r16
 1595 008a 111F      		rol r17
 1596               		2:
 1597 008c 6A95      		dec r22
 1598 008e 02F4      		brpl 1b
 1599 0090 B801      		movw r22,r16
 1600 0092 7C91      		ld r23,X
 1601 0094 672B      		or r22,r23
 1602 0096 6C93      		st X,r22
 1603               	.L118:
 369:lib/lufa/LUFA/Drivers/USB/Class/Common/HIDParser.c **** 
 370:lib/lufa/LUFA/Drivers/USB/Class/Common/HIDParser.c **** 		CurrentBit++;
 1604               		.loc 1 370 0
 1605 0098 4F5F      		subi r20,-1
 1606 009a 5F4F      		sbci r21,-1
 1607               	.LVL96:
 371:lib/lufa/LUFA/Drivers/USB/Class/Common/HIDParser.c **** 		BitMask <<= 1;
 1608               		.loc 1 371 0
 1609 009c CC0C      		lsl r12
 1610 009e DD1C      		rol r13
 1611 00a0 EE1C      		rol r14
 1612 00a2 FF1C      		rol r15
 1613               	.LVL97:
 1614 00a4 00C0      		rjmp .L117
 1615               	.LVL98:
 1616               	.L114:
 1617               	/* epilogue start */
 372:lib/lufa/LUFA/Drivers/USB/Class/Common/HIDParser.c **** 	}
 373:lib/lufa/LUFA/Drivers/USB/Class/Common/HIDParser.c **** }
 1618               		.loc 1 373 0
 1619 00a6 DF91      		pop r29
 1620 00a8 CF91      		pop r28
 1621 00aa 1F91      		pop r17
 1622 00ac 0F91      		pop r16
 1623 00ae FF90      		pop r15
 1624 00b0 EF90      		pop r14
 1625 00b2 DF90      		pop r13
 1626 00b4 CF90      		pop r12
 1627 00b6 BF90      		pop r11
 1628 00b8 AF90      		pop r10
 1629 00ba 9F90      		pop r9
 1630 00bc 8F90      		pop r8
 1631 00be 0895      		ret
 1632               		.cfi_endproc
 1633               	.LFE18:
 1635               		.section	.text.USB_GetHIDReportSize,"ax",@progbits
 1636               	.global	USB_GetHIDReportSize
 1638               	USB_GetHIDReportSize:
 1639               	.LFB19:
 374:lib/lufa/LUFA/Drivers/USB/Class/Common/HIDParser.c **** 
 375:lib/lufa/LUFA/Drivers/USB/Class/Common/HIDParser.c **** uint16_t USB_GetHIDReportSize(HID_ReportInfo_t* const ParserData,
 376:lib/lufa/LUFA/Drivers/USB/Class/Common/HIDParser.c ****                               const uint8_t ReportID,
 377:lib/lufa/LUFA/Drivers/USB/Class/Common/HIDParser.c ****                               const uint8_t ReportType)
 378:lib/lufa/LUFA/Drivers/USB/Class/Common/HIDParser.c **** {
 1640               		.loc 1 378 0
 1641               		.cfi_startproc
 1642               	.LVL99:
 1643               	/* prologue: function */
 1644               	/* frame size = 0 */
 1645               	/* stack size = 0 */
 1646               	.L__stack_usage = 0
 1647 0000 FC01      		movw r30,r24
 1648 0002 EA5B      		subi r30,-70
 1649 0004 FF4F      		sbci r31,-1
 1650 0006 50E0      		ldi r21,0
 1651 0008 440F      		lsl r20
 1652 000a 551F      		rol r21
 1653               	.LVL100:
 1654               	.LBB20:
 1655               	.LBB21:
 379:lib/lufa/LUFA/Drivers/USB/Class/Common/HIDParser.c **** 	for (uint8_t i = 0; i < HID_MAX_REPORT_IDS; i++)
 380:lib/lufa/LUFA/Drivers/USB/Class/Common/HIDParser.c **** 	{
 381:lib/lufa/LUFA/Drivers/USB/Class/Common/HIDParser.c **** 		uint16_t ReportSizeBits = ParserData->ReportIDSizes[i].ReportSizeBits[ReportType];
 1656               		.loc 1 381 0
 1657 000c 4F56      		subi r20,111
 1658 000e 5C4F      		sbci r21,-4
 1659               	.LVL101:
 1660               	.L131:
 1661 0010 DC01      		movw r26,r24
 1662 0012 A40F      		add r26,r20
 1663 0014 B51F      		adc r27,r21
 1664 0016 2D91      		ld r18,X+
 1665 0018 3C91      		ld r19,X
 1666               	.LVL102:
 382:lib/lufa/LUFA/Drivers/USB/Class/Common/HIDParser.c **** 
 383:lib/lufa/LUFA/Drivers/USB/Class/Common/HIDParser.c **** 		if (ParserData->ReportIDSizes[i].ReportID == ReportID)
 1667               		.loc 1 383 0
 1668 001a DC01      		movw r26,r24
 1669 001c A057      		subi r26,112
 1670 001e BC4F      		sbci r27,-4
 1671 0020 7C91      		ld r23,X
 1672 0022 7613      		cpse r23,r22
 1673 0024 00C0      		rjmp .L128
 384:lib/lufa/LUFA/Drivers/USB/Class/Common/HIDParser.c **** 		  return (ReportSizeBits / 8) + ((ReportSizeBits % 8) ? 1 : 0);
 1674               		.loc 1 384 0
 1675 0026 81E0      		ldi r24,lo8(1)
 1676 0028 90E0      		ldi r25,0
 1677 002a A901      		movw r20,r18
 1678 002c 4770      		andi r20,7
 1679 002e 5527      		clr r21
 1680 0030 452B      		or r20,r21
 1681 0032 01F4      		brne .L129
 1682 0034 80E0      		ldi r24,0
 1683 0036 90E0      		ldi r25,0
 1684               	.L129:
 1685 0038 43E0      		ldi r20,3
 1686               		1:
 1687 003a 3695      		lsr r19
 1688 003c 2795      		ror r18
 1689 003e 4A95      		dec r20
 1690 0040 01F4      		brne 1b
 1691               	.LVL103:
 1692 0042 820F      		add r24,r18
 1693 0044 931F      		adc r25,r19
 1694 0046 0895      		ret
 1695               	.LVL104:
 1696               	.L128:
 1697 0048 0796      		adiw r24,7
 1698               	.LBE21:
 379:lib/lufa/LUFA/Drivers/USB/Class/Common/HIDParser.c **** 	for (uint8_t i = 0; i < HID_MAX_REPORT_IDS; i++)
 1699               		.loc 1 379 0 discriminator 2
 1700 004a 8E17      		cp r24,r30
 1701 004c 9F07      		cpc r25,r31
 1702 004e 01F4      		brne .L131
 1703               	.LBE20:
 385:lib/lufa/LUFA/Drivers/USB/Class/Common/HIDParser.c **** 	}
 386:lib/lufa/LUFA/Drivers/USB/Class/Common/HIDParser.c **** 
 387:lib/lufa/LUFA/Drivers/USB/Class/Common/HIDParser.c **** 	return 0;
 1704               		.loc 1 387 0
 1705 0050 80E0      		ldi r24,0
 1706 0052 90E0      		ldi r25,0
 388:lib/lufa/LUFA/Drivers/USB/Class/Common/HIDParser.c **** }
 1707               		.loc 1 388 0
 1708 0054 0895      		ret
 1709               		.cfi_endproc
 1710               	.LFE19:
 1712               		.text
 1713               	.Letext0:
 1714               		.file 2 "/usr/lib/avr/include/stdint.h"
 1715               		.file 3 "lib/lufa/LUFA/Drivers/USB/Class/Common/HIDClassCommon.h"
 1716               		.file 4 "lib/lufa/LUFA/Drivers/USB/Class/Common/HIDParser.h"