   1               		.file	"EndpointStream_AVR8.c"
   2               	__SP_H__ = 0x3e
   3               	__SP_L__ = 0x3d
   4               	__SREG__ = 0x3f
   5               	__tmp_reg__ = 0
   6               	__zero_reg__ = 1
   7               		.text
   8               	.Ltext0:
   9               		.cfi_sections	.debug_frame
  10               		.section	.text.Endpoint_Discard_Stream,"ax",@progbits
  11               	.global	Endpoint_Discard_Stream
  13               	Endpoint_Discard_Stream:
  14               	.LFB80:
  15               		.file 1 "lib/lufa/LUFA/Drivers/USB/Core/AVR8/EndpointStream_AVR8.c"
   1:lib/lufa/LUFA/Drivers/USB/Core/AVR8/EndpointStream_AVR8.c **** /*
   2:lib/lufa/LUFA/Drivers/USB/Core/AVR8/EndpointStream_AVR8.c ****              LUFA Library
   3:lib/lufa/LUFA/Drivers/USB/Core/AVR8/EndpointStream_AVR8.c ****      Copyright (C) Dean Camera, 2019.
   4:lib/lufa/LUFA/Drivers/USB/Core/AVR8/EndpointStream_AVR8.c **** 
   5:lib/lufa/LUFA/Drivers/USB/Core/AVR8/EndpointStream_AVR8.c ****   dean [at] fourwalledcubicle [dot] com
   6:lib/lufa/LUFA/Drivers/USB/Core/AVR8/EndpointStream_AVR8.c ****            www.lufa-lib.org
   7:lib/lufa/LUFA/Drivers/USB/Core/AVR8/EndpointStream_AVR8.c **** */
   8:lib/lufa/LUFA/Drivers/USB/Core/AVR8/EndpointStream_AVR8.c **** 
   9:lib/lufa/LUFA/Drivers/USB/Core/AVR8/EndpointStream_AVR8.c **** /*
  10:lib/lufa/LUFA/Drivers/USB/Core/AVR8/EndpointStream_AVR8.c ****   Copyright 2019  Dean Camera (dean [at] fourwalledcubicle [dot] com)
  11:lib/lufa/LUFA/Drivers/USB/Core/AVR8/EndpointStream_AVR8.c **** 
  12:lib/lufa/LUFA/Drivers/USB/Core/AVR8/EndpointStream_AVR8.c ****   Permission to use, copy, modify, distribute, and sell this
  13:lib/lufa/LUFA/Drivers/USB/Core/AVR8/EndpointStream_AVR8.c ****   software and its documentation for any purpose is hereby granted
  14:lib/lufa/LUFA/Drivers/USB/Core/AVR8/EndpointStream_AVR8.c ****   without fee, provided that the above copyright notice appear in
  15:lib/lufa/LUFA/Drivers/USB/Core/AVR8/EndpointStream_AVR8.c ****   all copies and that both that the copyright notice and this
  16:lib/lufa/LUFA/Drivers/USB/Core/AVR8/EndpointStream_AVR8.c ****   permission notice and warranty disclaimer appear in supporting
  17:lib/lufa/LUFA/Drivers/USB/Core/AVR8/EndpointStream_AVR8.c ****   documentation, and that the name of the author not be used in
  18:lib/lufa/LUFA/Drivers/USB/Core/AVR8/EndpointStream_AVR8.c ****   advertising or publicity pertaining to distribution of the
  19:lib/lufa/LUFA/Drivers/USB/Core/AVR8/EndpointStream_AVR8.c ****   software without specific, written prior permission.
  20:lib/lufa/LUFA/Drivers/USB/Core/AVR8/EndpointStream_AVR8.c **** 
  21:lib/lufa/LUFA/Drivers/USB/Core/AVR8/EndpointStream_AVR8.c ****   The author disclaims all warranties with regard to this
  22:lib/lufa/LUFA/Drivers/USB/Core/AVR8/EndpointStream_AVR8.c ****   software, including all implied warranties of merchantability
  23:lib/lufa/LUFA/Drivers/USB/Core/AVR8/EndpointStream_AVR8.c ****   and fitness.  In no event shall the author be liable for any
  24:lib/lufa/LUFA/Drivers/USB/Core/AVR8/EndpointStream_AVR8.c ****   special, indirect or consequential damages or any damages
  25:lib/lufa/LUFA/Drivers/USB/Core/AVR8/EndpointStream_AVR8.c ****   whatsoever resulting from loss of use, data or profits, whether
  26:lib/lufa/LUFA/Drivers/USB/Core/AVR8/EndpointStream_AVR8.c ****   in an action of contract, negligence or other tortious action,
  27:lib/lufa/LUFA/Drivers/USB/Core/AVR8/EndpointStream_AVR8.c ****   arising out of or in connection with the use or performance of
  28:lib/lufa/LUFA/Drivers/USB/Core/AVR8/EndpointStream_AVR8.c ****   this software.
  29:lib/lufa/LUFA/Drivers/USB/Core/AVR8/EndpointStream_AVR8.c **** */
  30:lib/lufa/LUFA/Drivers/USB/Core/AVR8/EndpointStream_AVR8.c **** 
  31:lib/lufa/LUFA/Drivers/USB/Core/AVR8/EndpointStream_AVR8.c **** #include "../../../../Common/Common.h"
  32:lib/lufa/LUFA/Drivers/USB/Core/AVR8/EndpointStream_AVR8.c **** #if (ARCH == ARCH_AVR8)
  33:lib/lufa/LUFA/Drivers/USB/Core/AVR8/EndpointStream_AVR8.c **** 
  34:lib/lufa/LUFA/Drivers/USB/Core/AVR8/EndpointStream_AVR8.c **** #define  __INCLUDE_FROM_USB_DRIVER
  35:lib/lufa/LUFA/Drivers/USB/Core/AVR8/EndpointStream_AVR8.c **** #include "../USBMode.h"
  36:lib/lufa/LUFA/Drivers/USB/Core/AVR8/EndpointStream_AVR8.c **** 
  37:lib/lufa/LUFA/Drivers/USB/Core/AVR8/EndpointStream_AVR8.c **** #if defined(USB_CAN_BE_DEVICE)
  38:lib/lufa/LUFA/Drivers/USB/Core/AVR8/EndpointStream_AVR8.c **** 
  39:lib/lufa/LUFA/Drivers/USB/Core/AVR8/EndpointStream_AVR8.c **** #include "EndpointStream_AVR8.h"
  40:lib/lufa/LUFA/Drivers/USB/Core/AVR8/EndpointStream_AVR8.c **** 
  41:lib/lufa/LUFA/Drivers/USB/Core/AVR8/EndpointStream_AVR8.c **** #if !defined(CONTROL_ONLY_DEVICE)
  42:lib/lufa/LUFA/Drivers/USB/Core/AVR8/EndpointStream_AVR8.c **** uint8_t Endpoint_Discard_Stream(uint16_t Length,
  43:lib/lufa/LUFA/Drivers/USB/Core/AVR8/EndpointStream_AVR8.c ****                                 uint16_t* const BytesProcessed)
  44:lib/lufa/LUFA/Drivers/USB/Core/AVR8/EndpointStream_AVR8.c **** {
  16               		.loc 1 44 0
  17               		.cfi_startproc
  18               	.LVL0:
  19 0000 EF92      		push r14
  20               	.LCFI0:
  21               		.cfi_def_cfa_offset 3
  22               		.cfi_offset 14, -2
  23 0002 FF92      		push r15
  24               	.LCFI1:
  25               		.cfi_def_cfa_offset 4
  26               		.cfi_offset 15, -3
  27 0004 0F93      		push r16
  28               	.LCFI2:
  29               		.cfi_def_cfa_offset 5
  30               		.cfi_offset 16, -4
  31 0006 1F93      		push r17
  32               	.LCFI3:
  33               		.cfi_def_cfa_offset 6
  34               		.cfi_offset 17, -5
  35 0008 CF93      		push r28
  36               	.LCFI4:
  37               		.cfi_def_cfa_offset 7
  38               		.cfi_offset 28, -6
  39 000a DF93      		push r29
  40               	.LCFI5:
  41               		.cfi_def_cfa_offset 8
  42               		.cfi_offset 29, -7
  43               	/* prologue: function */
  44               	/* frame size = 0 */
  45               	/* stack size = 6 */
  46               	.L__stack_usage = 6
  47 000c 7C01      		movw r14,r24
  48 000e 8B01      		movw r16,r22
  45:lib/lufa/LUFA/Drivers/USB/Core/AVR8/EndpointStream_AVR8.c **** 	uint8_t  ErrorCode;
  46:lib/lufa/LUFA/Drivers/USB/Core/AVR8/EndpointStream_AVR8.c **** 	uint16_t BytesInTransfer = BytesProcessed ? *BytesProcessed : 0;
  49               		.loc 1 46 0
  50 0010 6115      		cp r22,__zero_reg__
  51 0012 7105      		cpc r23,__zero_reg__
  52 0014 01F0      		breq .L9
  53               		.loc 1 46 0 is_stmt 0 discriminator 1
  54 0016 FB01      		movw r30,r22
  55 0018 C081      		ld r28,Z
  56 001a D181      		ldd r29,Z+1
  57 001c 00C0      		rjmp .L6
  58               	.LVL1:
  59               	.L9:
  60               		.loc 1 46 0
  61 001e C0E0      		ldi r28,0
  62 0020 D0E0      		ldi r29,0
  63               	.LVL2:
  64               	.L6:
  47:lib/lufa/LUFA/Drivers/USB/Core/AVR8/EndpointStream_AVR8.c **** 
  48:lib/lufa/LUFA/Drivers/USB/Core/AVR8/EndpointStream_AVR8.c **** 	if ((ErrorCode = Endpoint_WaitUntilReady()))
  49:lib/lufa/LUFA/Drivers/USB/Core/AVR8/EndpointStream_AVR8.c **** 	  return ErrorCode;
  50:lib/lufa/LUFA/Drivers/USB/Core/AVR8/EndpointStream_AVR8.c **** 
  51:lib/lufa/LUFA/Drivers/USB/Core/AVR8/EndpointStream_AVR8.c **** 	while (BytesInTransfer < Length)
  52:lib/lufa/LUFA/Drivers/USB/Core/AVR8/EndpointStream_AVR8.c **** 	{
  53:lib/lufa/LUFA/Drivers/USB/Core/AVR8/EndpointStream_AVR8.c **** 		if (!(Endpoint_IsReadWriteAllowed()))
  54:lib/lufa/LUFA/Drivers/USB/Core/AVR8/EndpointStream_AVR8.c **** 		{
  55:lib/lufa/LUFA/Drivers/USB/Core/AVR8/EndpointStream_AVR8.c **** 			Endpoint_ClearOUT();
  56:lib/lufa/LUFA/Drivers/USB/Core/AVR8/EndpointStream_AVR8.c **** 
  57:lib/lufa/LUFA/Drivers/USB/Core/AVR8/EndpointStream_AVR8.c **** 			if (BytesProcessed != NULL)
  58:lib/lufa/LUFA/Drivers/USB/Core/AVR8/EndpointStream_AVR8.c **** 			{
  59:lib/lufa/LUFA/Drivers/USB/Core/AVR8/EndpointStream_AVR8.c **** 				*BytesProcessed = BytesInTransfer;
  60:lib/lufa/LUFA/Drivers/USB/Core/AVR8/EndpointStream_AVR8.c **** 				return ENDPOINT_RWSTREAM_IncompleteTransfer;
  61:lib/lufa/LUFA/Drivers/USB/Core/AVR8/EndpointStream_AVR8.c **** 			}
  62:lib/lufa/LUFA/Drivers/USB/Core/AVR8/EndpointStream_AVR8.c **** 
  63:lib/lufa/LUFA/Drivers/USB/Core/AVR8/EndpointStream_AVR8.c **** 			if ((ErrorCode = Endpoint_WaitUntilReady()))
  65               		.loc 1 63 0 is_stmt 1
  66 0022 0E94 0000 		call Endpoint_WaitUntilReady
  67               	.LVL3:
  68 0026 8111      		cpse r24,__zero_reg__
  69 0028 00C0      		rjmp .L3
  70               	.LVL4:
  71               	.L4:
  51:lib/lufa/LUFA/Drivers/USB/Core/AVR8/EndpointStream_AVR8.c **** 	{
  72               		.loc 1 51 0
  73 002a CE15      		cp r28,r14
  74 002c DF05      		cpc r29,r15
  75 002e 00F4      		brsh .L14
  76               	.LBB268:
  77               	.LBB269:
  78               		.file 2 "lib/lufa/LUFA/Drivers/USB/Core/AVR8/../AVR8/../AVR8/Endpoint_AVR8.h"
   1:lib/lufa/LUFA/Drivers/USB/Core/AVR8/../AVR8/../AVR8/Endpoint_AVR8.h **** /*
   2:lib/lufa/LUFA/Drivers/USB/Core/AVR8/../AVR8/../AVR8/Endpoint_AVR8.h ****              LUFA Library
   3:lib/lufa/LUFA/Drivers/USB/Core/AVR8/../AVR8/../AVR8/Endpoint_AVR8.h ****      Copyright (C) Dean Camera, 2019.
   4:lib/lufa/LUFA/Drivers/USB/Core/AVR8/../AVR8/../AVR8/Endpoint_AVR8.h **** 
   5:lib/lufa/LUFA/Drivers/USB/Core/AVR8/../AVR8/../AVR8/Endpoint_AVR8.h ****   dean [at] fourwalledcubicle [dot] com
   6:lib/lufa/LUFA/Drivers/USB/Core/AVR8/../AVR8/../AVR8/Endpoint_AVR8.h ****            www.lufa-lib.org
   7:lib/lufa/LUFA/Drivers/USB/Core/AVR8/../AVR8/../AVR8/Endpoint_AVR8.h **** */
   8:lib/lufa/LUFA/Drivers/USB/Core/AVR8/../AVR8/../AVR8/Endpoint_AVR8.h **** 
   9:lib/lufa/LUFA/Drivers/USB/Core/AVR8/../AVR8/../AVR8/Endpoint_AVR8.h **** /*
  10:lib/lufa/LUFA/Drivers/USB/Core/AVR8/../AVR8/../AVR8/Endpoint_AVR8.h ****   Copyright 2019  Dean Camera (dean [at] fourwalledcubicle [dot] com)
  11:lib/lufa/LUFA/Drivers/USB/Core/AVR8/../AVR8/../AVR8/Endpoint_AVR8.h **** 
  12:lib/lufa/LUFA/Drivers/USB/Core/AVR8/../AVR8/../AVR8/Endpoint_AVR8.h ****   Permission to use, copy, modify, distribute, and sell this
  13:lib/lufa/LUFA/Drivers/USB/Core/AVR8/../AVR8/../AVR8/Endpoint_AVR8.h ****   software and its documentation for any purpose is hereby granted
  14:lib/lufa/LUFA/Drivers/USB/Core/AVR8/../AVR8/../AVR8/Endpoint_AVR8.h ****   without fee, provided that the above copyright notice appear in
  15:lib/lufa/LUFA/Drivers/USB/Core/AVR8/../AVR8/../AVR8/Endpoint_AVR8.h ****   all copies and that both that the copyright notice and this
  16:lib/lufa/LUFA/Drivers/USB/Core/AVR8/../AVR8/../AVR8/Endpoint_AVR8.h ****   permission notice and warranty disclaimer appear in supporting
  17:lib/lufa/LUFA/Drivers/USB/Core/AVR8/../AVR8/../AVR8/Endpoint_AVR8.h ****   documentation, and that the name of the author not be used in
  18:lib/lufa/LUFA/Drivers/USB/Core/AVR8/../AVR8/../AVR8/Endpoint_AVR8.h ****   advertising or publicity pertaining to distribution of the
  19:lib/lufa/LUFA/Drivers/USB/Core/AVR8/../AVR8/../AVR8/Endpoint_AVR8.h ****   software without specific, written prior permission.
  20:lib/lufa/LUFA/Drivers/USB/Core/AVR8/../AVR8/../AVR8/Endpoint_AVR8.h **** 
  21:lib/lufa/LUFA/Drivers/USB/Core/AVR8/../AVR8/../AVR8/Endpoint_AVR8.h ****   The author disclaims all warranties with regard to this
  22:lib/lufa/LUFA/Drivers/USB/Core/AVR8/../AVR8/../AVR8/Endpoint_AVR8.h ****   software, including all implied warranties of merchantability
  23:lib/lufa/LUFA/Drivers/USB/Core/AVR8/../AVR8/../AVR8/Endpoint_AVR8.h ****   and fitness.  In no event shall the author be liable for any
  24:lib/lufa/LUFA/Drivers/USB/Core/AVR8/../AVR8/../AVR8/Endpoint_AVR8.h ****   special, indirect or consequential damages or any damages
  25:lib/lufa/LUFA/Drivers/USB/Core/AVR8/../AVR8/../AVR8/Endpoint_AVR8.h ****   whatsoever resulting from loss of use, data or profits, whether
  26:lib/lufa/LUFA/Drivers/USB/Core/AVR8/../AVR8/../AVR8/Endpoint_AVR8.h ****   in an action of contract, negligence or other tortious action,
  27:lib/lufa/LUFA/Drivers/USB/Core/AVR8/../AVR8/../AVR8/Endpoint_AVR8.h ****   arising out of or in connection with the use or performance of
  28:lib/lufa/LUFA/Drivers/USB/Core/AVR8/../AVR8/../AVR8/Endpoint_AVR8.h ****   this software.
  29:lib/lufa/LUFA/Drivers/USB/Core/AVR8/../AVR8/../AVR8/Endpoint_AVR8.h **** */
  30:lib/lufa/LUFA/Drivers/USB/Core/AVR8/../AVR8/../AVR8/Endpoint_AVR8.h **** 
  31:lib/lufa/LUFA/Drivers/USB/Core/AVR8/../AVR8/../AVR8/Endpoint_AVR8.h **** /** \file
  32:lib/lufa/LUFA/Drivers/USB/Core/AVR8/../AVR8/../AVR8/Endpoint_AVR8.h ****  *  \brief USB Endpoint definitions for the AVR8 microcontrollers.
  33:lib/lufa/LUFA/Drivers/USB/Core/AVR8/../AVR8/../AVR8/Endpoint_AVR8.h ****  *  \copydetails Group_EndpointManagement_AVR8
  34:lib/lufa/LUFA/Drivers/USB/Core/AVR8/../AVR8/../AVR8/Endpoint_AVR8.h ****  *
  35:lib/lufa/LUFA/Drivers/USB/Core/AVR8/../AVR8/../AVR8/Endpoint_AVR8.h ****  *  \note This file should not be included directly. It is automatically included as needed by the 
  36:lib/lufa/LUFA/Drivers/USB/Core/AVR8/../AVR8/../AVR8/Endpoint_AVR8.h ****  *        dispatch header located in LUFA/Drivers/USB/USB.h.
  37:lib/lufa/LUFA/Drivers/USB/Core/AVR8/../AVR8/../AVR8/Endpoint_AVR8.h ****  */
  38:lib/lufa/LUFA/Drivers/USB/Core/AVR8/../AVR8/../AVR8/Endpoint_AVR8.h **** 
  39:lib/lufa/LUFA/Drivers/USB/Core/AVR8/../AVR8/../AVR8/Endpoint_AVR8.h **** /** \ingroup Group_EndpointRW
  40:lib/lufa/LUFA/Drivers/USB/Core/AVR8/../AVR8/../AVR8/Endpoint_AVR8.h ****  *  \defgroup Group_EndpointRW_AVR8 Endpoint Data Reading and Writing (AVR8)
  41:lib/lufa/LUFA/Drivers/USB/Core/AVR8/../AVR8/../AVR8/Endpoint_AVR8.h ****  *  \brief Endpoint data read/write definitions for the Atmel AVR8 architecture.
  42:lib/lufa/LUFA/Drivers/USB/Core/AVR8/../AVR8/../AVR8/Endpoint_AVR8.h ****  *
  43:lib/lufa/LUFA/Drivers/USB/Core/AVR8/../AVR8/../AVR8/Endpoint_AVR8.h ****  *  Functions, macros, variables, enums and types related to data reading and writing from and to e
  44:lib/lufa/LUFA/Drivers/USB/Core/AVR8/../AVR8/../AVR8/Endpoint_AVR8.h ****  */
  45:lib/lufa/LUFA/Drivers/USB/Core/AVR8/../AVR8/../AVR8/Endpoint_AVR8.h **** 
  46:lib/lufa/LUFA/Drivers/USB/Core/AVR8/../AVR8/../AVR8/Endpoint_AVR8.h **** /** \ingroup Group_EndpointPrimitiveRW
  47:lib/lufa/LUFA/Drivers/USB/Core/AVR8/../AVR8/../AVR8/Endpoint_AVR8.h ****  *  \defgroup Group_EndpointPrimitiveRW_AVR8 Read/Write of Primitive Data Types (AVR8)
  48:lib/lufa/LUFA/Drivers/USB/Core/AVR8/../AVR8/../AVR8/Endpoint_AVR8.h ****  *  \brief Endpoint primitive read/write definitions for the Atmel AVR8 architecture.
  49:lib/lufa/LUFA/Drivers/USB/Core/AVR8/../AVR8/../AVR8/Endpoint_AVR8.h ****  *
  50:lib/lufa/LUFA/Drivers/USB/Core/AVR8/../AVR8/../AVR8/Endpoint_AVR8.h ****  *  Functions, macros, variables, enums and types related to data reading and writing of primitive 
  51:lib/lufa/LUFA/Drivers/USB/Core/AVR8/../AVR8/../AVR8/Endpoint_AVR8.h ****  *  from and to endpoints.
  52:lib/lufa/LUFA/Drivers/USB/Core/AVR8/../AVR8/../AVR8/Endpoint_AVR8.h ****  */
  53:lib/lufa/LUFA/Drivers/USB/Core/AVR8/../AVR8/../AVR8/Endpoint_AVR8.h **** 
  54:lib/lufa/LUFA/Drivers/USB/Core/AVR8/../AVR8/../AVR8/Endpoint_AVR8.h **** /** \ingroup Group_EndpointPacketManagement
  55:lib/lufa/LUFA/Drivers/USB/Core/AVR8/../AVR8/../AVR8/Endpoint_AVR8.h ****  *  \defgroup Group_EndpointPacketManagement_AVR8 Endpoint Packet Management (AVR8)
  56:lib/lufa/LUFA/Drivers/USB/Core/AVR8/../AVR8/../AVR8/Endpoint_AVR8.h ****  *  \brief Endpoint packet management definitions for the Atmel AVR8 architecture.
  57:lib/lufa/LUFA/Drivers/USB/Core/AVR8/../AVR8/../AVR8/Endpoint_AVR8.h ****  *
  58:lib/lufa/LUFA/Drivers/USB/Core/AVR8/../AVR8/../AVR8/Endpoint_AVR8.h ****  *  Functions, macros, variables, enums and types related to packet management of endpoints.
  59:lib/lufa/LUFA/Drivers/USB/Core/AVR8/../AVR8/../AVR8/Endpoint_AVR8.h ****  */
  60:lib/lufa/LUFA/Drivers/USB/Core/AVR8/../AVR8/../AVR8/Endpoint_AVR8.h **** 
  61:lib/lufa/LUFA/Drivers/USB/Core/AVR8/../AVR8/../AVR8/Endpoint_AVR8.h **** /** \ingroup Group_EndpointManagement
  62:lib/lufa/LUFA/Drivers/USB/Core/AVR8/../AVR8/../AVR8/Endpoint_AVR8.h ****  *  \defgroup Group_EndpointManagement_AVR8 Endpoint Management (AVR8)
  63:lib/lufa/LUFA/Drivers/USB/Core/AVR8/../AVR8/../AVR8/Endpoint_AVR8.h ****  *  \brief Endpoint management definitions for the Atmel AVR8 architecture.
  64:lib/lufa/LUFA/Drivers/USB/Core/AVR8/../AVR8/../AVR8/Endpoint_AVR8.h ****  *
  65:lib/lufa/LUFA/Drivers/USB/Core/AVR8/../AVR8/../AVR8/Endpoint_AVR8.h ****  *  Functions, macros and enums related to endpoint management when in USB Device mode. This
  66:lib/lufa/LUFA/Drivers/USB/Core/AVR8/../AVR8/../AVR8/Endpoint_AVR8.h ****  *  module contains the endpoint management macros, as well as endpoint interrupt and data
  67:lib/lufa/LUFA/Drivers/USB/Core/AVR8/../AVR8/../AVR8/Endpoint_AVR8.h ****  *  send/receive functions for various data types.
  68:lib/lufa/LUFA/Drivers/USB/Core/AVR8/../AVR8/../AVR8/Endpoint_AVR8.h ****  *
  69:lib/lufa/LUFA/Drivers/USB/Core/AVR8/../AVR8/../AVR8/Endpoint_AVR8.h ****  *  @{
  70:lib/lufa/LUFA/Drivers/USB/Core/AVR8/../AVR8/../AVR8/Endpoint_AVR8.h ****  */
  71:lib/lufa/LUFA/Drivers/USB/Core/AVR8/../AVR8/../AVR8/Endpoint_AVR8.h **** 
  72:lib/lufa/LUFA/Drivers/USB/Core/AVR8/../AVR8/../AVR8/Endpoint_AVR8.h **** #ifndef __ENDPOINT_AVR8_H__
  73:lib/lufa/LUFA/Drivers/USB/Core/AVR8/../AVR8/../AVR8/Endpoint_AVR8.h **** #define __ENDPOINT_AVR8_H__
  74:lib/lufa/LUFA/Drivers/USB/Core/AVR8/../AVR8/../AVR8/Endpoint_AVR8.h **** 
  75:lib/lufa/LUFA/Drivers/USB/Core/AVR8/../AVR8/../AVR8/Endpoint_AVR8.h **** 	/* Includes: */
  76:lib/lufa/LUFA/Drivers/USB/Core/AVR8/../AVR8/../AVR8/Endpoint_AVR8.h **** 		#include "../../../../Common/Common.h"
  77:lib/lufa/LUFA/Drivers/USB/Core/AVR8/../AVR8/../AVR8/Endpoint_AVR8.h **** 		#include "../USBTask.h"
  78:lib/lufa/LUFA/Drivers/USB/Core/AVR8/../AVR8/../AVR8/Endpoint_AVR8.h **** 		#include "../USBInterrupt.h"
  79:lib/lufa/LUFA/Drivers/USB/Core/AVR8/../AVR8/../AVR8/Endpoint_AVR8.h **** 
  80:lib/lufa/LUFA/Drivers/USB/Core/AVR8/../AVR8/../AVR8/Endpoint_AVR8.h **** 	/* Enable C linkage for C++ Compilers: */
  81:lib/lufa/LUFA/Drivers/USB/Core/AVR8/../AVR8/../AVR8/Endpoint_AVR8.h **** 		#if defined(__cplusplus)
  82:lib/lufa/LUFA/Drivers/USB/Core/AVR8/../AVR8/../AVR8/Endpoint_AVR8.h **** 			extern "C" {
  83:lib/lufa/LUFA/Drivers/USB/Core/AVR8/../AVR8/../AVR8/Endpoint_AVR8.h **** 		#endif
  84:lib/lufa/LUFA/Drivers/USB/Core/AVR8/../AVR8/../AVR8/Endpoint_AVR8.h **** 
  85:lib/lufa/LUFA/Drivers/USB/Core/AVR8/../AVR8/../AVR8/Endpoint_AVR8.h **** 	/* Preprocessor Checks: */
  86:lib/lufa/LUFA/Drivers/USB/Core/AVR8/../AVR8/../AVR8/Endpoint_AVR8.h **** 		#if !defined(__INCLUDE_FROM_USB_DRIVER)
  87:lib/lufa/LUFA/Drivers/USB/Core/AVR8/../AVR8/../AVR8/Endpoint_AVR8.h **** 			#error Do not include this file directly. Include LUFA/Drivers/USB/USB.h instead.
  88:lib/lufa/LUFA/Drivers/USB/Core/AVR8/../AVR8/../AVR8/Endpoint_AVR8.h **** 		#endif
  89:lib/lufa/LUFA/Drivers/USB/Core/AVR8/../AVR8/../AVR8/Endpoint_AVR8.h **** 
  90:lib/lufa/LUFA/Drivers/USB/Core/AVR8/../AVR8/../AVR8/Endpoint_AVR8.h **** 	/* Private Interface - For use in library only: */
  91:lib/lufa/LUFA/Drivers/USB/Core/AVR8/../AVR8/../AVR8/Endpoint_AVR8.h **** 	#if !defined(__DOXYGEN__)
  92:lib/lufa/LUFA/Drivers/USB/Core/AVR8/../AVR8/../AVR8/Endpoint_AVR8.h **** 		/* Inline Functions: */
  93:lib/lufa/LUFA/Drivers/USB/Core/AVR8/../AVR8/../AVR8/Endpoint_AVR8.h **** 			static inline uint8_t Endpoint_BytesToEPSizeMask(const uint16_t Bytes) ATTR_WARN_UNUSED_RESULT A
  94:lib/lufa/LUFA/Drivers/USB/Core/AVR8/../AVR8/../AVR8/Endpoint_AVR8.h **** 			                                                                       ATTR_ALWAYS_INLINE;
  95:lib/lufa/LUFA/Drivers/USB/Core/AVR8/../AVR8/../AVR8/Endpoint_AVR8.h **** 			static inline uint8_t Endpoint_BytesToEPSizeMask(const uint16_t Bytes)
  96:lib/lufa/LUFA/Drivers/USB/Core/AVR8/../AVR8/../AVR8/Endpoint_AVR8.h **** 			{
  97:lib/lufa/LUFA/Drivers/USB/Core/AVR8/../AVR8/../AVR8/Endpoint_AVR8.h **** 				uint8_t  MaskVal    = 0;
  98:lib/lufa/LUFA/Drivers/USB/Core/AVR8/../AVR8/../AVR8/Endpoint_AVR8.h **** 				uint16_t CheckBytes = 8;
  99:lib/lufa/LUFA/Drivers/USB/Core/AVR8/../AVR8/../AVR8/Endpoint_AVR8.h **** 
 100:lib/lufa/LUFA/Drivers/USB/Core/AVR8/../AVR8/../AVR8/Endpoint_AVR8.h **** 				while (CheckBytes < Bytes)
 101:lib/lufa/LUFA/Drivers/USB/Core/AVR8/../AVR8/../AVR8/Endpoint_AVR8.h **** 				{
 102:lib/lufa/LUFA/Drivers/USB/Core/AVR8/../AVR8/../AVR8/Endpoint_AVR8.h **** 					MaskVal++;
 103:lib/lufa/LUFA/Drivers/USB/Core/AVR8/../AVR8/../AVR8/Endpoint_AVR8.h **** 					CheckBytes <<= 1;
 104:lib/lufa/LUFA/Drivers/USB/Core/AVR8/../AVR8/../AVR8/Endpoint_AVR8.h **** 				}
 105:lib/lufa/LUFA/Drivers/USB/Core/AVR8/../AVR8/../AVR8/Endpoint_AVR8.h **** 
 106:lib/lufa/LUFA/Drivers/USB/Core/AVR8/../AVR8/../AVR8/Endpoint_AVR8.h **** 				return (MaskVal << EPSIZE0);
 107:lib/lufa/LUFA/Drivers/USB/Core/AVR8/../AVR8/../AVR8/Endpoint_AVR8.h **** 			}
 108:lib/lufa/LUFA/Drivers/USB/Core/AVR8/../AVR8/../AVR8/Endpoint_AVR8.h **** 
 109:lib/lufa/LUFA/Drivers/USB/Core/AVR8/../AVR8/../AVR8/Endpoint_AVR8.h **** 		/* Function Prototypes: */
 110:lib/lufa/LUFA/Drivers/USB/Core/AVR8/../AVR8/../AVR8/Endpoint_AVR8.h **** 			void Endpoint_ClearEndpoints(void);
 111:lib/lufa/LUFA/Drivers/USB/Core/AVR8/../AVR8/../AVR8/Endpoint_AVR8.h **** 			bool Endpoint_ConfigureEndpoint_Prv(const uint8_t Number,
 112:lib/lufa/LUFA/Drivers/USB/Core/AVR8/../AVR8/../AVR8/Endpoint_AVR8.h **** 			                                    const uint8_t UECFG0XData,
 113:lib/lufa/LUFA/Drivers/USB/Core/AVR8/../AVR8/../AVR8/Endpoint_AVR8.h **** 			                                    const uint8_t UECFG1XData);
 114:lib/lufa/LUFA/Drivers/USB/Core/AVR8/../AVR8/../AVR8/Endpoint_AVR8.h **** 
 115:lib/lufa/LUFA/Drivers/USB/Core/AVR8/../AVR8/../AVR8/Endpoint_AVR8.h **** 	#endif
 116:lib/lufa/LUFA/Drivers/USB/Core/AVR8/../AVR8/../AVR8/Endpoint_AVR8.h **** 
 117:lib/lufa/LUFA/Drivers/USB/Core/AVR8/../AVR8/../AVR8/Endpoint_AVR8.h **** 	/* Public Interface - May be used in end-application: */
 118:lib/lufa/LUFA/Drivers/USB/Core/AVR8/../AVR8/../AVR8/Endpoint_AVR8.h **** 		/* Macros: */
 119:lib/lufa/LUFA/Drivers/USB/Core/AVR8/../AVR8/../AVR8/Endpoint_AVR8.h **** 			#if (!defined(FIXED_CONTROL_ENDPOINT_SIZE) || defined(__DOXYGEN__))
 120:lib/lufa/LUFA/Drivers/USB/Core/AVR8/../AVR8/../AVR8/Endpoint_AVR8.h **** 				/** Default size of the default control endpoint's bank, until altered by the control endpoint 
 121:lib/lufa/LUFA/Drivers/USB/Core/AVR8/../AVR8/../AVR8/Endpoint_AVR8.h **** 				 *  value in the device descriptor. Not available if the \c FIXED_CONTROL_ENDPOINT_SIZE token i
 122:lib/lufa/LUFA/Drivers/USB/Core/AVR8/../AVR8/../AVR8/Endpoint_AVR8.h **** 				 */
 123:lib/lufa/LUFA/Drivers/USB/Core/AVR8/../AVR8/../AVR8/Endpoint_AVR8.h **** 				#define ENDPOINT_CONTROLEP_DEFAULT_SIZE     8
 124:lib/lufa/LUFA/Drivers/USB/Core/AVR8/../AVR8/../AVR8/Endpoint_AVR8.h **** 			#endif
 125:lib/lufa/LUFA/Drivers/USB/Core/AVR8/../AVR8/../AVR8/Endpoint_AVR8.h **** 
 126:lib/lufa/LUFA/Drivers/USB/Core/AVR8/../AVR8/../AVR8/Endpoint_AVR8.h **** 			#if !defined(CONTROL_ONLY_DEVICE) || defined(__DOXYGEN__)
 127:lib/lufa/LUFA/Drivers/USB/Core/AVR8/../AVR8/../AVR8/Endpoint_AVR8.h **** 				#if defined(USB_SERIES_4_AVR) || defined(USB_SERIES_6_AVR) || defined(USB_SERIES_7_AVR) || defi
 128:lib/lufa/LUFA/Drivers/USB/Core/AVR8/../AVR8/../AVR8/Endpoint_AVR8.h **** 					/** Total number of endpoints (including the default control endpoint at address 0) which may
 129:lib/lufa/LUFA/Drivers/USB/Core/AVR8/../AVR8/../AVR8/Endpoint_AVR8.h **** 					 *  be used in the device. Different USB AVR models support different amounts of endpoints,
 130:lib/lufa/LUFA/Drivers/USB/Core/AVR8/../AVR8/../AVR8/Endpoint_AVR8.h **** 					 *  this value reflects the maximum number of endpoints for the currently selected AVR model.
 131:lib/lufa/LUFA/Drivers/USB/Core/AVR8/../AVR8/../AVR8/Endpoint_AVR8.h **** 					 */
 132:lib/lufa/LUFA/Drivers/USB/Core/AVR8/../AVR8/../AVR8/Endpoint_AVR8.h **** 					#define ENDPOINT_TOTAL_ENDPOINTS        7
 133:lib/lufa/LUFA/Drivers/USB/Core/AVR8/../AVR8/../AVR8/Endpoint_AVR8.h **** 				#else
 134:lib/lufa/LUFA/Drivers/USB/Core/AVR8/../AVR8/../AVR8/Endpoint_AVR8.h **** 					#define ENDPOINT_TOTAL_ENDPOINTS        5
 135:lib/lufa/LUFA/Drivers/USB/Core/AVR8/../AVR8/../AVR8/Endpoint_AVR8.h **** 				#endif
 136:lib/lufa/LUFA/Drivers/USB/Core/AVR8/../AVR8/../AVR8/Endpoint_AVR8.h **** 			#else
 137:lib/lufa/LUFA/Drivers/USB/Core/AVR8/../AVR8/../AVR8/Endpoint_AVR8.h **** 				#define ENDPOINT_TOTAL_ENDPOINTS            1
 138:lib/lufa/LUFA/Drivers/USB/Core/AVR8/../AVR8/../AVR8/Endpoint_AVR8.h **** 			#endif
 139:lib/lufa/LUFA/Drivers/USB/Core/AVR8/../AVR8/../AVR8/Endpoint_AVR8.h **** 
 140:lib/lufa/LUFA/Drivers/USB/Core/AVR8/../AVR8/../AVR8/Endpoint_AVR8.h **** 		/* Enums: */
 141:lib/lufa/LUFA/Drivers/USB/Core/AVR8/../AVR8/../AVR8/Endpoint_AVR8.h **** 			/** Enum for the possible error return codes of the \ref Endpoint_WaitUntilReady() function.
 142:lib/lufa/LUFA/Drivers/USB/Core/AVR8/../AVR8/../AVR8/Endpoint_AVR8.h **** 			 *
 143:lib/lufa/LUFA/Drivers/USB/Core/AVR8/../AVR8/../AVR8/Endpoint_AVR8.h **** 			 *  \ingroup Group_EndpointRW_AVR8
 144:lib/lufa/LUFA/Drivers/USB/Core/AVR8/../AVR8/../AVR8/Endpoint_AVR8.h **** 			 */
 145:lib/lufa/LUFA/Drivers/USB/Core/AVR8/../AVR8/../AVR8/Endpoint_AVR8.h **** 			enum Endpoint_WaitUntilReady_ErrorCodes_t
 146:lib/lufa/LUFA/Drivers/USB/Core/AVR8/../AVR8/../AVR8/Endpoint_AVR8.h **** 			{
 147:lib/lufa/LUFA/Drivers/USB/Core/AVR8/../AVR8/../AVR8/Endpoint_AVR8.h **** 				ENDPOINT_READYWAIT_NoError                 = 0, /**< Endpoint is ready for next packet, no erro
 148:lib/lufa/LUFA/Drivers/USB/Core/AVR8/../AVR8/../AVR8/Endpoint_AVR8.h **** 				ENDPOINT_READYWAIT_EndpointStalled         = 1, /**< The endpoint was stalled during the stream
 149:lib/lufa/LUFA/Drivers/USB/Core/AVR8/../AVR8/../AVR8/Endpoint_AVR8.h **** 				                                                 *   transfer by the host or device.
 150:lib/lufa/LUFA/Drivers/USB/Core/AVR8/../AVR8/../AVR8/Endpoint_AVR8.h **** 				                                                 */
 151:lib/lufa/LUFA/Drivers/USB/Core/AVR8/../AVR8/../AVR8/Endpoint_AVR8.h **** 				ENDPOINT_READYWAIT_DeviceDisconnected      = 2,	/**< Device was disconnected from the host whil
 152:lib/lufa/LUFA/Drivers/USB/Core/AVR8/../AVR8/../AVR8/Endpoint_AVR8.h **** 				                                                 *   waiting for the endpoint to become ready.
 153:lib/lufa/LUFA/Drivers/USB/Core/AVR8/../AVR8/../AVR8/Endpoint_AVR8.h **** 				                                                 */
 154:lib/lufa/LUFA/Drivers/USB/Core/AVR8/../AVR8/../AVR8/Endpoint_AVR8.h **** 				ENDPOINT_READYWAIT_BusSuspended            = 3, /**< The USB bus has been suspended by the host
 155:lib/lufa/LUFA/Drivers/USB/Core/AVR8/../AVR8/../AVR8/Endpoint_AVR8.h **** 				                                                 *   no USB endpoint traffic can occur until th
 156:lib/lufa/LUFA/Drivers/USB/Core/AVR8/../AVR8/../AVR8/Endpoint_AVR8.h **** 				                                                 *   has resumed.
 157:lib/lufa/LUFA/Drivers/USB/Core/AVR8/../AVR8/../AVR8/Endpoint_AVR8.h **** 				                                                 */
 158:lib/lufa/LUFA/Drivers/USB/Core/AVR8/../AVR8/../AVR8/Endpoint_AVR8.h **** 				ENDPOINT_READYWAIT_Timeout                 = 4, /**< The host failed to accept or send the next
 159:lib/lufa/LUFA/Drivers/USB/Core/AVR8/../AVR8/../AVR8/Endpoint_AVR8.h **** 				                                                 *   within the software timeout period set by 
 160:lib/lufa/LUFA/Drivers/USB/Core/AVR8/../AVR8/../AVR8/Endpoint_AVR8.h **** 				                                                 *   \ref USB_STREAM_TIMEOUT_MS macro.
 161:lib/lufa/LUFA/Drivers/USB/Core/AVR8/../AVR8/../AVR8/Endpoint_AVR8.h **** 				                                                 */
 162:lib/lufa/LUFA/Drivers/USB/Core/AVR8/../AVR8/../AVR8/Endpoint_AVR8.h **** 			};
 163:lib/lufa/LUFA/Drivers/USB/Core/AVR8/../AVR8/../AVR8/Endpoint_AVR8.h **** 
 164:lib/lufa/LUFA/Drivers/USB/Core/AVR8/../AVR8/../AVR8/Endpoint_AVR8.h **** 		/* Inline Functions: */
 165:lib/lufa/LUFA/Drivers/USB/Core/AVR8/../AVR8/../AVR8/Endpoint_AVR8.h **** 			/** Configures the specified endpoint address with the given endpoint type, bank size and number
 166:lib/lufa/LUFA/Drivers/USB/Core/AVR8/../AVR8/../AVR8/Endpoint_AVR8.h **** 			 *  banks. Once configured, the endpoint may be read from or written to, depending on its direct
 167:lib/lufa/LUFA/Drivers/USB/Core/AVR8/../AVR8/../AVR8/Endpoint_AVR8.h **** 			 *
 168:lib/lufa/LUFA/Drivers/USB/Core/AVR8/../AVR8/../AVR8/Endpoint_AVR8.h **** 			 *  \param[in] Address    Endpoint address to configure.
 169:lib/lufa/LUFA/Drivers/USB/Core/AVR8/../AVR8/../AVR8/Endpoint_AVR8.h **** 			 *
 170:lib/lufa/LUFA/Drivers/USB/Core/AVR8/../AVR8/../AVR8/Endpoint_AVR8.h **** 			 *  \param[in] Type       Type of endpoint to configure, a \c EP_TYPE_* mask. Not all endpoint t
 171:lib/lufa/LUFA/Drivers/USB/Core/AVR8/../AVR8/../AVR8/Endpoint_AVR8.h **** 			 *                        are available on Low Speed USB devices - refer to the USB 2.0 specific
 172:lib/lufa/LUFA/Drivers/USB/Core/AVR8/../AVR8/../AVR8/Endpoint_AVR8.h **** 			 *
 173:lib/lufa/LUFA/Drivers/USB/Core/AVR8/../AVR8/../AVR8/Endpoint_AVR8.h **** 			 *  \param[in] Size       Size of the endpoint's bank, where packets are stored before they are 
 174:lib/lufa/LUFA/Drivers/USB/Core/AVR8/../AVR8/../AVR8/Endpoint_AVR8.h **** 			 *                        to the USB host, or after they have been received from the USB host (d
 175:lib/lufa/LUFA/Drivers/USB/Core/AVR8/../AVR8/../AVR8/Endpoint_AVR8.h **** 			 *                        the endpoint's data direction). The bank size must indicate the maximu
 176:lib/lufa/LUFA/Drivers/USB/Core/AVR8/../AVR8/../AVR8/Endpoint_AVR8.h **** 			 *                        that the endpoint can handle.
 177:lib/lufa/LUFA/Drivers/USB/Core/AVR8/../AVR8/../AVR8/Endpoint_AVR8.h **** 			 *
 178:lib/lufa/LUFA/Drivers/USB/Core/AVR8/../AVR8/../AVR8/Endpoint_AVR8.h **** 			 *  \param[in] Banks      Number of banks to use for the endpoint being configured.
 179:lib/lufa/LUFA/Drivers/USB/Core/AVR8/../AVR8/../AVR8/Endpoint_AVR8.h **** 			 *
 180:lib/lufa/LUFA/Drivers/USB/Core/AVR8/../AVR8/../AVR8/Endpoint_AVR8.h **** 			 *  \attention When the \c ORDERED_EP_CONFIG compile time option is used, Endpoints <b>must</b> 
 181:lib/lufa/LUFA/Drivers/USB/Core/AVR8/../AVR8/../AVR8/Endpoint_AVR8.h **** 			 *             ascending order, or bank corruption will occur.
 182:lib/lufa/LUFA/Drivers/USB/Core/AVR8/../AVR8/../AVR8/Endpoint_AVR8.h **** 			 *
 183:lib/lufa/LUFA/Drivers/USB/Core/AVR8/../AVR8/../AVR8/Endpoint_AVR8.h **** 			 *  \note Different endpoints may have different maximum packet sizes based on the endpoint's in
 184:lib/lufa/LUFA/Drivers/USB/Core/AVR8/../AVR8/../AVR8/Endpoint_AVR8.h **** 			 *        refer to the chosen microcontroller model's datasheet to determine the maximum bank si
 185:lib/lufa/LUFA/Drivers/USB/Core/AVR8/../AVR8/../AVR8/Endpoint_AVR8.h **** 			 *        \n\n
 186:lib/lufa/LUFA/Drivers/USB/Core/AVR8/../AVR8/../AVR8/Endpoint_AVR8.h **** 			 *
 187:lib/lufa/LUFA/Drivers/USB/Core/AVR8/../AVR8/../AVR8/Endpoint_AVR8.h **** 			 *  \note The default control endpoint should not be manually configured by the user application
 188:lib/lufa/LUFA/Drivers/USB/Core/AVR8/../AVR8/../AVR8/Endpoint_AVR8.h **** 			 *        it is automatically configured by the library internally.
 189:lib/lufa/LUFA/Drivers/USB/Core/AVR8/../AVR8/../AVR8/Endpoint_AVR8.h **** 			 *        \n\n
 190:lib/lufa/LUFA/Drivers/USB/Core/AVR8/../AVR8/../AVR8/Endpoint_AVR8.h **** 			 *
 191:lib/lufa/LUFA/Drivers/USB/Core/AVR8/../AVR8/../AVR8/Endpoint_AVR8.h **** 			 *  \note This routine will automatically select the specified endpoint upon success. Upon failu
 192:lib/lufa/LUFA/Drivers/USB/Core/AVR8/../AVR8/../AVR8/Endpoint_AVR8.h **** 			 *        which failed to reconfigure correctly will be selected.
 193:lib/lufa/LUFA/Drivers/USB/Core/AVR8/../AVR8/../AVR8/Endpoint_AVR8.h **** 			 *
 194:lib/lufa/LUFA/Drivers/USB/Core/AVR8/../AVR8/../AVR8/Endpoint_AVR8.h **** 			 *  \return Boolean \c true if the configuration succeeded, \c false otherwise.
 195:lib/lufa/LUFA/Drivers/USB/Core/AVR8/../AVR8/../AVR8/Endpoint_AVR8.h **** 			 */
 196:lib/lufa/LUFA/Drivers/USB/Core/AVR8/../AVR8/../AVR8/Endpoint_AVR8.h **** 			static inline bool Endpoint_ConfigureEndpoint(const uint8_t Address,
 197:lib/lufa/LUFA/Drivers/USB/Core/AVR8/../AVR8/../AVR8/Endpoint_AVR8.h **** 			                                              const uint8_t Type,
 198:lib/lufa/LUFA/Drivers/USB/Core/AVR8/../AVR8/../AVR8/Endpoint_AVR8.h **** 			                                              const uint16_t Size,
 199:lib/lufa/LUFA/Drivers/USB/Core/AVR8/../AVR8/../AVR8/Endpoint_AVR8.h **** 			                                              const uint8_t Banks) ATTR_ALWAYS_INLINE;
 200:lib/lufa/LUFA/Drivers/USB/Core/AVR8/../AVR8/../AVR8/Endpoint_AVR8.h **** 			static inline bool Endpoint_ConfigureEndpoint(const uint8_t Address,
 201:lib/lufa/LUFA/Drivers/USB/Core/AVR8/../AVR8/../AVR8/Endpoint_AVR8.h **** 			                                              const uint8_t Type,
 202:lib/lufa/LUFA/Drivers/USB/Core/AVR8/../AVR8/../AVR8/Endpoint_AVR8.h **** 			                                              const uint16_t Size,
 203:lib/lufa/LUFA/Drivers/USB/Core/AVR8/../AVR8/../AVR8/Endpoint_AVR8.h **** 			                                              const uint8_t Banks)
 204:lib/lufa/LUFA/Drivers/USB/Core/AVR8/../AVR8/../AVR8/Endpoint_AVR8.h **** 			{
 205:lib/lufa/LUFA/Drivers/USB/Core/AVR8/../AVR8/../AVR8/Endpoint_AVR8.h **** 				uint8_t Number = (Address & ENDPOINT_EPNUM_MASK);
 206:lib/lufa/LUFA/Drivers/USB/Core/AVR8/../AVR8/../AVR8/Endpoint_AVR8.h **** 
 207:lib/lufa/LUFA/Drivers/USB/Core/AVR8/../AVR8/../AVR8/Endpoint_AVR8.h **** 				if (Number >= ENDPOINT_TOTAL_ENDPOINTS)
 208:lib/lufa/LUFA/Drivers/USB/Core/AVR8/../AVR8/../AVR8/Endpoint_AVR8.h **** 				  return false;
 209:lib/lufa/LUFA/Drivers/USB/Core/AVR8/../AVR8/../AVR8/Endpoint_AVR8.h **** 
 210:lib/lufa/LUFA/Drivers/USB/Core/AVR8/../AVR8/../AVR8/Endpoint_AVR8.h **** 				return Endpoint_ConfigureEndpoint_Prv(Number,
 211:lib/lufa/LUFA/Drivers/USB/Core/AVR8/../AVR8/../AVR8/Endpoint_AVR8.h **** 				                                      ((Type << EPTYPE0) | ((Address & ENDPOINT_DIR_IN) ? (1 <<
 212:lib/lufa/LUFA/Drivers/USB/Core/AVR8/../AVR8/../AVR8/Endpoint_AVR8.h **** 				                                      ((1 << ALLOC) | ((Banks > 1) ? (1 << EPBK0) : 0) | Endpoi
 213:lib/lufa/LUFA/Drivers/USB/Core/AVR8/../AVR8/../AVR8/Endpoint_AVR8.h **** 			}
 214:lib/lufa/LUFA/Drivers/USB/Core/AVR8/../AVR8/../AVR8/Endpoint_AVR8.h **** 
 215:lib/lufa/LUFA/Drivers/USB/Core/AVR8/../AVR8/../AVR8/Endpoint_AVR8.h **** 			/** Indicates the number of bytes currently stored in the current endpoint's selected bank.
 216:lib/lufa/LUFA/Drivers/USB/Core/AVR8/../AVR8/../AVR8/Endpoint_AVR8.h **** 			 *
 217:lib/lufa/LUFA/Drivers/USB/Core/AVR8/../AVR8/../AVR8/Endpoint_AVR8.h **** 			 *  \ingroup Group_EndpointRW_AVR8
 218:lib/lufa/LUFA/Drivers/USB/Core/AVR8/../AVR8/../AVR8/Endpoint_AVR8.h **** 			 *
 219:lib/lufa/LUFA/Drivers/USB/Core/AVR8/../AVR8/../AVR8/Endpoint_AVR8.h **** 			 *  \return Total number of bytes in the currently selected Endpoint's FIFO buffer.
 220:lib/lufa/LUFA/Drivers/USB/Core/AVR8/../AVR8/../AVR8/Endpoint_AVR8.h **** 			 */
 221:lib/lufa/LUFA/Drivers/USB/Core/AVR8/../AVR8/../AVR8/Endpoint_AVR8.h **** 			static inline uint16_t Endpoint_BytesInEndpoint(void) ATTR_WARN_UNUSED_RESULT ATTR_ALWAYS_INLINE
 222:lib/lufa/LUFA/Drivers/USB/Core/AVR8/../AVR8/../AVR8/Endpoint_AVR8.h **** 			static inline uint16_t Endpoint_BytesInEndpoint(void)
 223:lib/lufa/LUFA/Drivers/USB/Core/AVR8/../AVR8/../AVR8/Endpoint_AVR8.h **** 			{
 224:lib/lufa/LUFA/Drivers/USB/Core/AVR8/../AVR8/../AVR8/Endpoint_AVR8.h **** 				#if (defined(USB_SERIES_6_AVR) || defined(USB_SERIES_7_AVR))
 225:lib/lufa/LUFA/Drivers/USB/Core/AVR8/../AVR8/../AVR8/Endpoint_AVR8.h **** 					return UEBCX;
 226:lib/lufa/LUFA/Drivers/USB/Core/AVR8/../AVR8/../AVR8/Endpoint_AVR8.h **** 				#elif defined(USB_SERIES_4_AVR)
 227:lib/lufa/LUFA/Drivers/USB/Core/AVR8/../AVR8/../AVR8/Endpoint_AVR8.h **** 					return (((uint16_t)UEBCHX << 8) | UEBCLX);
 228:lib/lufa/LUFA/Drivers/USB/Core/AVR8/../AVR8/../AVR8/Endpoint_AVR8.h **** 				#elif defined(USB_SERIES_2_AVR)
 229:lib/lufa/LUFA/Drivers/USB/Core/AVR8/../AVR8/../AVR8/Endpoint_AVR8.h **** 					return UEBCLX;
 230:lib/lufa/LUFA/Drivers/USB/Core/AVR8/../AVR8/../AVR8/Endpoint_AVR8.h **** 				#endif
 231:lib/lufa/LUFA/Drivers/USB/Core/AVR8/../AVR8/../AVR8/Endpoint_AVR8.h **** 			}
 232:lib/lufa/LUFA/Drivers/USB/Core/AVR8/../AVR8/../AVR8/Endpoint_AVR8.h **** 
 233:lib/lufa/LUFA/Drivers/USB/Core/AVR8/../AVR8/../AVR8/Endpoint_AVR8.h **** 			/** Determines the currently selected endpoint's direction.
 234:lib/lufa/LUFA/Drivers/USB/Core/AVR8/../AVR8/../AVR8/Endpoint_AVR8.h **** 			 *
 235:lib/lufa/LUFA/Drivers/USB/Core/AVR8/../AVR8/../AVR8/Endpoint_AVR8.h **** 			 *  \return The currently selected endpoint's direction, as a \c ENDPOINT_DIR_* mask.
 236:lib/lufa/LUFA/Drivers/USB/Core/AVR8/../AVR8/../AVR8/Endpoint_AVR8.h **** 			 */
 237:lib/lufa/LUFA/Drivers/USB/Core/AVR8/../AVR8/../AVR8/Endpoint_AVR8.h **** 			static inline uint8_t Endpoint_GetEndpointDirection(void) ATTR_WARN_UNUSED_RESULT ATTR_ALWAYS_IN
 238:lib/lufa/LUFA/Drivers/USB/Core/AVR8/../AVR8/../AVR8/Endpoint_AVR8.h **** 			static inline uint8_t Endpoint_GetEndpointDirection(void)
 239:lib/lufa/LUFA/Drivers/USB/Core/AVR8/../AVR8/../AVR8/Endpoint_AVR8.h **** 			{
 240:lib/lufa/LUFA/Drivers/USB/Core/AVR8/../AVR8/../AVR8/Endpoint_AVR8.h **** 				return (UECFG0X & (1 << EPDIR)) ? ENDPOINT_DIR_IN : ENDPOINT_DIR_OUT;
 241:lib/lufa/LUFA/Drivers/USB/Core/AVR8/../AVR8/../AVR8/Endpoint_AVR8.h **** 			}
 242:lib/lufa/LUFA/Drivers/USB/Core/AVR8/../AVR8/../AVR8/Endpoint_AVR8.h **** 
 243:lib/lufa/LUFA/Drivers/USB/Core/AVR8/../AVR8/../AVR8/Endpoint_AVR8.h **** 			/** Get the endpoint address of the currently selected endpoint. This is typically used to save
 244:lib/lufa/LUFA/Drivers/USB/Core/AVR8/../AVR8/../AVR8/Endpoint_AVR8.h **** 			 *  the currently selected endpoint so that it can be restored after another endpoint has been
 245:lib/lufa/LUFA/Drivers/USB/Core/AVR8/../AVR8/../AVR8/Endpoint_AVR8.h **** 			 *  manipulated.
 246:lib/lufa/LUFA/Drivers/USB/Core/AVR8/../AVR8/../AVR8/Endpoint_AVR8.h **** 			 *
 247:lib/lufa/LUFA/Drivers/USB/Core/AVR8/../AVR8/../AVR8/Endpoint_AVR8.h **** 			 *  \return Index of the currently selected endpoint.
 248:lib/lufa/LUFA/Drivers/USB/Core/AVR8/../AVR8/../AVR8/Endpoint_AVR8.h **** 			 */
 249:lib/lufa/LUFA/Drivers/USB/Core/AVR8/../AVR8/../AVR8/Endpoint_AVR8.h **** 			static inline uint8_t Endpoint_GetCurrentEndpoint(void) ATTR_WARN_UNUSED_RESULT ATTR_ALWAYS_INLI
 250:lib/lufa/LUFA/Drivers/USB/Core/AVR8/../AVR8/../AVR8/Endpoint_AVR8.h **** 			static inline uint8_t Endpoint_GetCurrentEndpoint(void)
 251:lib/lufa/LUFA/Drivers/USB/Core/AVR8/../AVR8/../AVR8/Endpoint_AVR8.h **** 			{
 252:lib/lufa/LUFA/Drivers/USB/Core/AVR8/../AVR8/../AVR8/Endpoint_AVR8.h **** 				#if !defined(CONTROL_ONLY_DEVICE)
 253:lib/lufa/LUFA/Drivers/USB/Core/AVR8/../AVR8/../AVR8/Endpoint_AVR8.h **** 					return ((UENUM & ENDPOINT_EPNUM_MASK) | Endpoint_GetEndpointDirection());
 254:lib/lufa/LUFA/Drivers/USB/Core/AVR8/../AVR8/../AVR8/Endpoint_AVR8.h **** 				#else
 255:lib/lufa/LUFA/Drivers/USB/Core/AVR8/../AVR8/../AVR8/Endpoint_AVR8.h **** 					return ENDPOINT_CONTROLEP;
 256:lib/lufa/LUFA/Drivers/USB/Core/AVR8/../AVR8/../AVR8/Endpoint_AVR8.h **** 				#endif
 257:lib/lufa/LUFA/Drivers/USB/Core/AVR8/../AVR8/../AVR8/Endpoint_AVR8.h **** 			}
 258:lib/lufa/LUFA/Drivers/USB/Core/AVR8/../AVR8/../AVR8/Endpoint_AVR8.h **** 
 259:lib/lufa/LUFA/Drivers/USB/Core/AVR8/../AVR8/../AVR8/Endpoint_AVR8.h **** 			/** Selects the given endpoint address.
 260:lib/lufa/LUFA/Drivers/USB/Core/AVR8/../AVR8/../AVR8/Endpoint_AVR8.h **** 			 *
 261:lib/lufa/LUFA/Drivers/USB/Core/AVR8/../AVR8/../AVR8/Endpoint_AVR8.h **** 			 *  Any endpoint operations which do not require the endpoint address to be indicated will opera
 262:lib/lufa/LUFA/Drivers/USB/Core/AVR8/../AVR8/../AVR8/Endpoint_AVR8.h **** 			 *  the currently selected endpoint.
 263:lib/lufa/LUFA/Drivers/USB/Core/AVR8/../AVR8/../AVR8/Endpoint_AVR8.h **** 			 *
 264:lib/lufa/LUFA/Drivers/USB/Core/AVR8/../AVR8/../AVR8/Endpoint_AVR8.h **** 			 *  \param[in] Address Endpoint address to select.
 265:lib/lufa/LUFA/Drivers/USB/Core/AVR8/../AVR8/../AVR8/Endpoint_AVR8.h **** 			 */
 266:lib/lufa/LUFA/Drivers/USB/Core/AVR8/../AVR8/../AVR8/Endpoint_AVR8.h **** 			static inline void Endpoint_SelectEndpoint(const uint8_t Address) ATTR_ALWAYS_INLINE;
 267:lib/lufa/LUFA/Drivers/USB/Core/AVR8/../AVR8/../AVR8/Endpoint_AVR8.h **** 			static inline void Endpoint_SelectEndpoint(const uint8_t Address)
 268:lib/lufa/LUFA/Drivers/USB/Core/AVR8/../AVR8/../AVR8/Endpoint_AVR8.h **** 			{
 269:lib/lufa/LUFA/Drivers/USB/Core/AVR8/../AVR8/../AVR8/Endpoint_AVR8.h **** 				#if !defined(CONTROL_ONLY_DEVICE)
 270:lib/lufa/LUFA/Drivers/USB/Core/AVR8/../AVR8/../AVR8/Endpoint_AVR8.h **** 					UENUM = (Address & ENDPOINT_EPNUM_MASK);
 271:lib/lufa/LUFA/Drivers/USB/Core/AVR8/../AVR8/../AVR8/Endpoint_AVR8.h **** 				#endif
 272:lib/lufa/LUFA/Drivers/USB/Core/AVR8/../AVR8/../AVR8/Endpoint_AVR8.h **** 			}
 273:lib/lufa/LUFA/Drivers/USB/Core/AVR8/../AVR8/../AVR8/Endpoint_AVR8.h **** 
 274:lib/lufa/LUFA/Drivers/USB/Core/AVR8/../AVR8/../AVR8/Endpoint_AVR8.h **** 			/** Resets the endpoint bank FIFO. This clears all the endpoint banks and resets the USB control
 275:lib/lufa/LUFA/Drivers/USB/Core/AVR8/../AVR8/../AVR8/Endpoint_AVR8.h **** 			 *  data In and Out pointers to the bank's contents.
 276:lib/lufa/LUFA/Drivers/USB/Core/AVR8/../AVR8/../AVR8/Endpoint_AVR8.h **** 			 *
 277:lib/lufa/LUFA/Drivers/USB/Core/AVR8/../AVR8/../AVR8/Endpoint_AVR8.h **** 			 *  \param[in] Address  Endpoint address whose FIFO buffers are to be reset.
 278:lib/lufa/LUFA/Drivers/USB/Core/AVR8/../AVR8/../AVR8/Endpoint_AVR8.h **** 			 */
 279:lib/lufa/LUFA/Drivers/USB/Core/AVR8/../AVR8/../AVR8/Endpoint_AVR8.h **** 			static inline void Endpoint_ResetEndpoint(const uint8_t Address) ATTR_ALWAYS_INLINE;
 280:lib/lufa/LUFA/Drivers/USB/Core/AVR8/../AVR8/../AVR8/Endpoint_AVR8.h **** 			static inline void Endpoint_ResetEndpoint(const uint8_t Address)
 281:lib/lufa/LUFA/Drivers/USB/Core/AVR8/../AVR8/../AVR8/Endpoint_AVR8.h **** 			{
 282:lib/lufa/LUFA/Drivers/USB/Core/AVR8/../AVR8/../AVR8/Endpoint_AVR8.h **** 				UERST = (1 << (Address & ENDPOINT_EPNUM_MASK));
 283:lib/lufa/LUFA/Drivers/USB/Core/AVR8/../AVR8/../AVR8/Endpoint_AVR8.h **** 				UERST = 0;
 284:lib/lufa/LUFA/Drivers/USB/Core/AVR8/../AVR8/../AVR8/Endpoint_AVR8.h **** 			}
 285:lib/lufa/LUFA/Drivers/USB/Core/AVR8/../AVR8/../AVR8/Endpoint_AVR8.h **** 
 286:lib/lufa/LUFA/Drivers/USB/Core/AVR8/../AVR8/../AVR8/Endpoint_AVR8.h **** 			/** Enables the currently selected endpoint so that data can be sent and received through it to
 287:lib/lufa/LUFA/Drivers/USB/Core/AVR8/../AVR8/../AVR8/Endpoint_AVR8.h **** 			 *  and from a host.
 288:lib/lufa/LUFA/Drivers/USB/Core/AVR8/../AVR8/../AVR8/Endpoint_AVR8.h **** 			 *
 289:lib/lufa/LUFA/Drivers/USB/Core/AVR8/../AVR8/../AVR8/Endpoint_AVR8.h **** 			 *  \note Endpoints must first be configured properly via \ref Endpoint_ConfigureEndpoint().
 290:lib/lufa/LUFA/Drivers/USB/Core/AVR8/../AVR8/../AVR8/Endpoint_AVR8.h **** 			 */
 291:lib/lufa/LUFA/Drivers/USB/Core/AVR8/../AVR8/../AVR8/Endpoint_AVR8.h **** 			static inline void Endpoint_EnableEndpoint(void) ATTR_ALWAYS_INLINE;
 292:lib/lufa/LUFA/Drivers/USB/Core/AVR8/../AVR8/../AVR8/Endpoint_AVR8.h **** 			static inline void Endpoint_EnableEndpoint(void)
 293:lib/lufa/LUFA/Drivers/USB/Core/AVR8/../AVR8/../AVR8/Endpoint_AVR8.h **** 			{
 294:lib/lufa/LUFA/Drivers/USB/Core/AVR8/../AVR8/../AVR8/Endpoint_AVR8.h **** 				UECONX |= (1 << EPEN);
 295:lib/lufa/LUFA/Drivers/USB/Core/AVR8/../AVR8/../AVR8/Endpoint_AVR8.h **** 			}
 296:lib/lufa/LUFA/Drivers/USB/Core/AVR8/../AVR8/../AVR8/Endpoint_AVR8.h **** 
 297:lib/lufa/LUFA/Drivers/USB/Core/AVR8/../AVR8/../AVR8/Endpoint_AVR8.h **** 			/** Disables the currently selected endpoint so that data cannot be sent and received through it
 298:lib/lufa/LUFA/Drivers/USB/Core/AVR8/../AVR8/../AVR8/Endpoint_AVR8.h **** 			 *  to and from a host.
 299:lib/lufa/LUFA/Drivers/USB/Core/AVR8/../AVR8/../AVR8/Endpoint_AVR8.h **** 			 */
 300:lib/lufa/LUFA/Drivers/USB/Core/AVR8/../AVR8/../AVR8/Endpoint_AVR8.h **** 			static inline void Endpoint_DisableEndpoint(void) ATTR_ALWAYS_INLINE;
 301:lib/lufa/LUFA/Drivers/USB/Core/AVR8/../AVR8/../AVR8/Endpoint_AVR8.h **** 			static inline void Endpoint_DisableEndpoint(void)
 302:lib/lufa/LUFA/Drivers/USB/Core/AVR8/../AVR8/../AVR8/Endpoint_AVR8.h **** 			{
 303:lib/lufa/LUFA/Drivers/USB/Core/AVR8/../AVR8/../AVR8/Endpoint_AVR8.h **** 				UECONX &= ~(1 << EPEN);
 304:lib/lufa/LUFA/Drivers/USB/Core/AVR8/../AVR8/../AVR8/Endpoint_AVR8.h **** 			}
 305:lib/lufa/LUFA/Drivers/USB/Core/AVR8/../AVR8/../AVR8/Endpoint_AVR8.h **** 
 306:lib/lufa/LUFA/Drivers/USB/Core/AVR8/../AVR8/../AVR8/Endpoint_AVR8.h **** 			/** Determines if the currently selected endpoint is enabled, but not necessarily configured.
 307:lib/lufa/LUFA/Drivers/USB/Core/AVR8/../AVR8/../AVR8/Endpoint_AVR8.h **** 			 *
 308:lib/lufa/LUFA/Drivers/USB/Core/AVR8/../AVR8/../AVR8/Endpoint_AVR8.h **** 			 * \return Boolean \c true if the currently selected endpoint is enabled, \c false otherwise.
 309:lib/lufa/LUFA/Drivers/USB/Core/AVR8/../AVR8/../AVR8/Endpoint_AVR8.h **** 			 */
 310:lib/lufa/LUFA/Drivers/USB/Core/AVR8/../AVR8/../AVR8/Endpoint_AVR8.h **** 			static inline bool Endpoint_IsEnabled(void) ATTR_WARN_UNUSED_RESULT ATTR_ALWAYS_INLINE;
 311:lib/lufa/LUFA/Drivers/USB/Core/AVR8/../AVR8/../AVR8/Endpoint_AVR8.h **** 			static inline bool Endpoint_IsEnabled(void)
 312:lib/lufa/LUFA/Drivers/USB/Core/AVR8/../AVR8/../AVR8/Endpoint_AVR8.h **** 			{
 313:lib/lufa/LUFA/Drivers/USB/Core/AVR8/../AVR8/../AVR8/Endpoint_AVR8.h **** 				return ((UECONX & (1 << EPEN)) ? true : false);
 314:lib/lufa/LUFA/Drivers/USB/Core/AVR8/../AVR8/../AVR8/Endpoint_AVR8.h **** 			}
 315:lib/lufa/LUFA/Drivers/USB/Core/AVR8/../AVR8/../AVR8/Endpoint_AVR8.h **** 
 316:lib/lufa/LUFA/Drivers/USB/Core/AVR8/../AVR8/../AVR8/Endpoint_AVR8.h **** 			/** Retrieves the number of busy banks in the currently selected endpoint, which have been queue
 317:lib/lufa/LUFA/Drivers/USB/Core/AVR8/../AVR8/../AVR8/Endpoint_AVR8.h **** 			 *  transmission via the \ref Endpoint_ClearIN() command, or are awaiting acknowledgment via the
 318:lib/lufa/LUFA/Drivers/USB/Core/AVR8/../AVR8/../AVR8/Endpoint_AVR8.h **** 			 *  \ref Endpoint_ClearOUT() command.
 319:lib/lufa/LUFA/Drivers/USB/Core/AVR8/../AVR8/../AVR8/Endpoint_AVR8.h **** 			 *
 320:lib/lufa/LUFA/Drivers/USB/Core/AVR8/../AVR8/../AVR8/Endpoint_AVR8.h **** 			 *  \ingroup Group_EndpointPacketManagement_AVR8
 321:lib/lufa/LUFA/Drivers/USB/Core/AVR8/../AVR8/../AVR8/Endpoint_AVR8.h **** 			 *
 322:lib/lufa/LUFA/Drivers/USB/Core/AVR8/../AVR8/../AVR8/Endpoint_AVR8.h **** 			 *  \return Total number of busy banks in the selected endpoint.
 323:lib/lufa/LUFA/Drivers/USB/Core/AVR8/../AVR8/../AVR8/Endpoint_AVR8.h **** 			 */
 324:lib/lufa/LUFA/Drivers/USB/Core/AVR8/../AVR8/../AVR8/Endpoint_AVR8.h **** 			static inline uint8_t Endpoint_GetBusyBanks(void) ATTR_ALWAYS_INLINE ATTR_WARN_UNUSED_RESULT;
 325:lib/lufa/LUFA/Drivers/USB/Core/AVR8/../AVR8/../AVR8/Endpoint_AVR8.h **** 			static inline uint8_t Endpoint_GetBusyBanks(void)
 326:lib/lufa/LUFA/Drivers/USB/Core/AVR8/../AVR8/../AVR8/Endpoint_AVR8.h **** 			{
 327:lib/lufa/LUFA/Drivers/USB/Core/AVR8/../AVR8/../AVR8/Endpoint_AVR8.h **** 				return (UESTA0X & (0x03 << NBUSYBK0));
 328:lib/lufa/LUFA/Drivers/USB/Core/AVR8/../AVR8/../AVR8/Endpoint_AVR8.h **** 			}
 329:lib/lufa/LUFA/Drivers/USB/Core/AVR8/../AVR8/../AVR8/Endpoint_AVR8.h **** 
 330:lib/lufa/LUFA/Drivers/USB/Core/AVR8/../AVR8/../AVR8/Endpoint_AVR8.h **** 			/** Aborts all pending IN transactions on the currently selected endpoint, once the bank
 331:lib/lufa/LUFA/Drivers/USB/Core/AVR8/../AVR8/../AVR8/Endpoint_AVR8.h **** 			 *  has been queued for transmission to the host via \ref Endpoint_ClearIN(). This function
 332:lib/lufa/LUFA/Drivers/USB/Core/AVR8/../AVR8/../AVR8/Endpoint_AVR8.h **** 			 *  will terminate all queued transactions, resetting the endpoint banks ready for a new
 333:lib/lufa/LUFA/Drivers/USB/Core/AVR8/../AVR8/../AVR8/Endpoint_AVR8.h **** 			 *  packet.
 334:lib/lufa/LUFA/Drivers/USB/Core/AVR8/../AVR8/../AVR8/Endpoint_AVR8.h **** 			 *
 335:lib/lufa/LUFA/Drivers/USB/Core/AVR8/../AVR8/../AVR8/Endpoint_AVR8.h **** 			 *  \ingroup Group_EndpointPacketManagement_AVR8
 336:lib/lufa/LUFA/Drivers/USB/Core/AVR8/../AVR8/../AVR8/Endpoint_AVR8.h **** 			 */
 337:lib/lufa/LUFA/Drivers/USB/Core/AVR8/../AVR8/../AVR8/Endpoint_AVR8.h **** 			static inline void Endpoint_AbortPendingIN(void)
 338:lib/lufa/LUFA/Drivers/USB/Core/AVR8/../AVR8/../AVR8/Endpoint_AVR8.h **** 			{
 339:lib/lufa/LUFA/Drivers/USB/Core/AVR8/../AVR8/../AVR8/Endpoint_AVR8.h **** 				while (Endpoint_GetBusyBanks() != 0)
 340:lib/lufa/LUFA/Drivers/USB/Core/AVR8/../AVR8/../AVR8/Endpoint_AVR8.h **** 				{
 341:lib/lufa/LUFA/Drivers/USB/Core/AVR8/../AVR8/../AVR8/Endpoint_AVR8.h **** 					UEINTX |= (1 << RXOUTI);
 342:lib/lufa/LUFA/Drivers/USB/Core/AVR8/../AVR8/../AVR8/Endpoint_AVR8.h **** 					while (UEINTX & (1 << RXOUTI));
 343:lib/lufa/LUFA/Drivers/USB/Core/AVR8/../AVR8/../AVR8/Endpoint_AVR8.h **** 				}
 344:lib/lufa/LUFA/Drivers/USB/Core/AVR8/../AVR8/../AVR8/Endpoint_AVR8.h **** 			}
 345:lib/lufa/LUFA/Drivers/USB/Core/AVR8/../AVR8/../AVR8/Endpoint_AVR8.h **** 
 346:lib/lufa/LUFA/Drivers/USB/Core/AVR8/../AVR8/../AVR8/Endpoint_AVR8.h **** 			/** Determines if the currently selected endpoint may be read from (if data is waiting in the en
 347:lib/lufa/LUFA/Drivers/USB/Core/AVR8/../AVR8/../AVR8/Endpoint_AVR8.h **** 			 *  bank and the endpoint is an OUT direction, or if the bank is not yet full if the endpoint is
 348:lib/lufa/LUFA/Drivers/USB/Core/AVR8/../AVR8/../AVR8/Endpoint_AVR8.h **** 			 *  direction). This function will return false if an error has occurred in the endpoint, if the
 349:lib/lufa/LUFA/Drivers/USB/Core/AVR8/../AVR8/../AVR8/Endpoint_AVR8.h **** 			 *  is an OUT direction and no packet (or an empty packet) has been received, or if the endpoint
 350:lib/lufa/LUFA/Drivers/USB/Core/AVR8/../AVR8/../AVR8/Endpoint_AVR8.h **** 			 *  direction and the endpoint bank is full.
 351:lib/lufa/LUFA/Drivers/USB/Core/AVR8/../AVR8/../AVR8/Endpoint_AVR8.h **** 			 *
 352:lib/lufa/LUFA/Drivers/USB/Core/AVR8/../AVR8/../AVR8/Endpoint_AVR8.h **** 			 *  \ingroup Group_EndpointPacketManagement_AVR8
 353:lib/lufa/LUFA/Drivers/USB/Core/AVR8/../AVR8/../AVR8/Endpoint_AVR8.h **** 			 *
 354:lib/lufa/LUFA/Drivers/USB/Core/AVR8/../AVR8/../AVR8/Endpoint_AVR8.h **** 			 *  \return Boolean \c true if the currently selected endpoint may be read from or written to, d
 355:lib/lufa/LUFA/Drivers/USB/Core/AVR8/../AVR8/../AVR8/Endpoint_AVR8.h **** 			 *          on its direction.
 356:lib/lufa/LUFA/Drivers/USB/Core/AVR8/../AVR8/../AVR8/Endpoint_AVR8.h **** 			 */
 357:lib/lufa/LUFA/Drivers/USB/Core/AVR8/../AVR8/../AVR8/Endpoint_AVR8.h **** 			static inline bool Endpoint_IsReadWriteAllowed(void) ATTR_WARN_UNUSED_RESULT ATTR_ALWAYS_INLINE;
 358:lib/lufa/LUFA/Drivers/USB/Core/AVR8/../AVR8/../AVR8/Endpoint_AVR8.h **** 			static inline bool Endpoint_IsReadWriteAllowed(void)
 359:lib/lufa/LUFA/Drivers/USB/Core/AVR8/../AVR8/../AVR8/Endpoint_AVR8.h **** 			{
 360:lib/lufa/LUFA/Drivers/USB/Core/AVR8/../AVR8/../AVR8/Endpoint_AVR8.h **** 				return ((UEINTX & (1 << RWAL)) ? true : false);
  79               		.loc 2 360 0
  80 0030 8091 E800 		lds r24,232
  81               	.LBE269:
  82               	.LBE268:
  53:lib/lufa/LUFA/Drivers/USB/Core/AVR8/EndpointStream_AVR8.c **** 		{
  83               		.loc 1 53 0
  84 0034 85FD      		sbrc r24,5
  85 0036 00C0      		rjmp .L5
  86               	.LBB270:
  87               	.LBB271:
 361:lib/lufa/LUFA/Drivers/USB/Core/AVR8/../AVR8/../AVR8/Endpoint_AVR8.h **** 			}
 362:lib/lufa/LUFA/Drivers/USB/Core/AVR8/../AVR8/../AVR8/Endpoint_AVR8.h **** 
 363:lib/lufa/LUFA/Drivers/USB/Core/AVR8/../AVR8/../AVR8/Endpoint_AVR8.h **** 			/** Determines if the currently selected endpoint is configured.
 364:lib/lufa/LUFA/Drivers/USB/Core/AVR8/../AVR8/../AVR8/Endpoint_AVR8.h **** 			 *
 365:lib/lufa/LUFA/Drivers/USB/Core/AVR8/../AVR8/../AVR8/Endpoint_AVR8.h **** 			 *  \return Boolean \c true if the currently selected endpoint has been configured, \c false oth
 366:lib/lufa/LUFA/Drivers/USB/Core/AVR8/../AVR8/../AVR8/Endpoint_AVR8.h **** 			 */
 367:lib/lufa/LUFA/Drivers/USB/Core/AVR8/../AVR8/../AVR8/Endpoint_AVR8.h **** 			static inline bool Endpoint_IsConfigured(void) ATTR_WARN_UNUSED_RESULT ATTR_ALWAYS_INLINE;
 368:lib/lufa/LUFA/Drivers/USB/Core/AVR8/../AVR8/../AVR8/Endpoint_AVR8.h **** 			static inline bool Endpoint_IsConfigured(void)
 369:lib/lufa/LUFA/Drivers/USB/Core/AVR8/../AVR8/../AVR8/Endpoint_AVR8.h **** 			{
 370:lib/lufa/LUFA/Drivers/USB/Core/AVR8/../AVR8/../AVR8/Endpoint_AVR8.h **** 				return ((UESTA0X & (1 << CFGOK)) ? true : false);
 371:lib/lufa/LUFA/Drivers/USB/Core/AVR8/../AVR8/../AVR8/Endpoint_AVR8.h **** 			}
 372:lib/lufa/LUFA/Drivers/USB/Core/AVR8/../AVR8/../AVR8/Endpoint_AVR8.h **** 
 373:lib/lufa/LUFA/Drivers/USB/Core/AVR8/../AVR8/../AVR8/Endpoint_AVR8.h **** 			/** Returns a mask indicating which INTERRUPT type endpoints have interrupted - i.e. their
 374:lib/lufa/LUFA/Drivers/USB/Core/AVR8/../AVR8/../AVR8/Endpoint_AVR8.h **** 			 *  interrupt duration has elapsed. Which endpoints have interrupted can be determined by
 375:lib/lufa/LUFA/Drivers/USB/Core/AVR8/../AVR8/../AVR8/Endpoint_AVR8.h **** 			 *  masking the return value against <tt>(1 << <i>{Endpoint Number}</i>)</tt>.
 376:lib/lufa/LUFA/Drivers/USB/Core/AVR8/../AVR8/../AVR8/Endpoint_AVR8.h **** 			 *
 377:lib/lufa/LUFA/Drivers/USB/Core/AVR8/../AVR8/../AVR8/Endpoint_AVR8.h **** 			 *  \return Mask whose bits indicate which endpoints have interrupted.
 378:lib/lufa/LUFA/Drivers/USB/Core/AVR8/../AVR8/../AVR8/Endpoint_AVR8.h **** 			 */
 379:lib/lufa/LUFA/Drivers/USB/Core/AVR8/../AVR8/../AVR8/Endpoint_AVR8.h **** 			static inline uint8_t Endpoint_GetEndpointInterrupts(void) ATTR_WARN_UNUSED_RESULT ATTR_ALWAYS_I
 380:lib/lufa/LUFA/Drivers/USB/Core/AVR8/../AVR8/../AVR8/Endpoint_AVR8.h **** 			static inline uint8_t Endpoint_GetEndpointInterrupts(void)
 381:lib/lufa/LUFA/Drivers/USB/Core/AVR8/../AVR8/../AVR8/Endpoint_AVR8.h **** 			{
 382:lib/lufa/LUFA/Drivers/USB/Core/AVR8/../AVR8/../AVR8/Endpoint_AVR8.h **** 				return UEINT;
 383:lib/lufa/LUFA/Drivers/USB/Core/AVR8/../AVR8/../AVR8/Endpoint_AVR8.h **** 			}
 384:lib/lufa/LUFA/Drivers/USB/Core/AVR8/../AVR8/../AVR8/Endpoint_AVR8.h **** 
 385:lib/lufa/LUFA/Drivers/USB/Core/AVR8/../AVR8/../AVR8/Endpoint_AVR8.h **** 			/** Determines if the specified endpoint number has interrupted (valid only for INTERRUPT type
 386:lib/lufa/LUFA/Drivers/USB/Core/AVR8/../AVR8/../AVR8/Endpoint_AVR8.h **** 			 *  endpoints).
 387:lib/lufa/LUFA/Drivers/USB/Core/AVR8/../AVR8/../AVR8/Endpoint_AVR8.h **** 			 *
 388:lib/lufa/LUFA/Drivers/USB/Core/AVR8/../AVR8/../AVR8/Endpoint_AVR8.h **** 			 *  \param[in] Address  Address of the endpoint whose interrupt flag should be tested.
 389:lib/lufa/LUFA/Drivers/USB/Core/AVR8/../AVR8/../AVR8/Endpoint_AVR8.h **** 			 *
 390:lib/lufa/LUFA/Drivers/USB/Core/AVR8/../AVR8/../AVR8/Endpoint_AVR8.h **** 			 *  \return Boolean \c true if the specified endpoint has interrupted, \c false otherwise.
 391:lib/lufa/LUFA/Drivers/USB/Core/AVR8/../AVR8/../AVR8/Endpoint_AVR8.h **** 			 */
 392:lib/lufa/LUFA/Drivers/USB/Core/AVR8/../AVR8/../AVR8/Endpoint_AVR8.h **** 			static inline bool Endpoint_HasEndpointInterrupted(const uint8_t Address) ATTR_WARN_UNUSED_RESUL
 393:lib/lufa/LUFA/Drivers/USB/Core/AVR8/../AVR8/../AVR8/Endpoint_AVR8.h **** 			static inline bool Endpoint_HasEndpointInterrupted(const uint8_t Address)
 394:lib/lufa/LUFA/Drivers/USB/Core/AVR8/../AVR8/../AVR8/Endpoint_AVR8.h **** 			{
 395:lib/lufa/LUFA/Drivers/USB/Core/AVR8/../AVR8/../AVR8/Endpoint_AVR8.h **** 				return ((Endpoint_GetEndpointInterrupts() & (1 << (Address & ENDPOINT_EPNUM_MASK))) ? true : fa
 396:lib/lufa/LUFA/Drivers/USB/Core/AVR8/../AVR8/../AVR8/Endpoint_AVR8.h **** 			}
 397:lib/lufa/LUFA/Drivers/USB/Core/AVR8/../AVR8/../AVR8/Endpoint_AVR8.h **** 
 398:lib/lufa/LUFA/Drivers/USB/Core/AVR8/../AVR8/../AVR8/Endpoint_AVR8.h **** 			/** Determines if the selected IN endpoint is ready for a new packet to be sent to the host.
 399:lib/lufa/LUFA/Drivers/USB/Core/AVR8/../AVR8/../AVR8/Endpoint_AVR8.h **** 			 *
 400:lib/lufa/LUFA/Drivers/USB/Core/AVR8/../AVR8/../AVR8/Endpoint_AVR8.h **** 			 *  \ingroup Group_EndpointPacketManagement_AVR8
 401:lib/lufa/LUFA/Drivers/USB/Core/AVR8/../AVR8/../AVR8/Endpoint_AVR8.h **** 			 *
 402:lib/lufa/LUFA/Drivers/USB/Core/AVR8/../AVR8/../AVR8/Endpoint_AVR8.h **** 			 *  \return Boolean \c true if the current endpoint is ready for an IN packet, \c false otherwis
 403:lib/lufa/LUFA/Drivers/USB/Core/AVR8/../AVR8/../AVR8/Endpoint_AVR8.h **** 			 */
 404:lib/lufa/LUFA/Drivers/USB/Core/AVR8/../AVR8/../AVR8/Endpoint_AVR8.h **** 			static inline bool Endpoint_IsINReady(void) ATTR_WARN_UNUSED_RESULT ATTR_ALWAYS_INLINE;
 405:lib/lufa/LUFA/Drivers/USB/Core/AVR8/../AVR8/../AVR8/Endpoint_AVR8.h **** 			static inline bool Endpoint_IsINReady(void)
 406:lib/lufa/LUFA/Drivers/USB/Core/AVR8/../AVR8/../AVR8/Endpoint_AVR8.h **** 			{
 407:lib/lufa/LUFA/Drivers/USB/Core/AVR8/../AVR8/../AVR8/Endpoint_AVR8.h **** 				return ((UEINTX & (1 << TXINI)) ? true : false);
 408:lib/lufa/LUFA/Drivers/USB/Core/AVR8/../AVR8/../AVR8/Endpoint_AVR8.h **** 			}
 409:lib/lufa/LUFA/Drivers/USB/Core/AVR8/../AVR8/../AVR8/Endpoint_AVR8.h **** 
 410:lib/lufa/LUFA/Drivers/USB/Core/AVR8/../AVR8/../AVR8/Endpoint_AVR8.h **** 			/** Determines if the selected OUT endpoint has received new packet from the host.
 411:lib/lufa/LUFA/Drivers/USB/Core/AVR8/../AVR8/../AVR8/Endpoint_AVR8.h **** 			 *
 412:lib/lufa/LUFA/Drivers/USB/Core/AVR8/../AVR8/../AVR8/Endpoint_AVR8.h **** 			 *  \ingroup Group_EndpointPacketManagement_AVR8
 413:lib/lufa/LUFA/Drivers/USB/Core/AVR8/../AVR8/../AVR8/Endpoint_AVR8.h **** 			 *
 414:lib/lufa/LUFA/Drivers/USB/Core/AVR8/../AVR8/../AVR8/Endpoint_AVR8.h **** 			 *  \return Boolean \c true if current endpoint is has received an OUT packet, \c false otherwis
 415:lib/lufa/LUFA/Drivers/USB/Core/AVR8/../AVR8/../AVR8/Endpoint_AVR8.h **** 			 */
 416:lib/lufa/LUFA/Drivers/USB/Core/AVR8/../AVR8/../AVR8/Endpoint_AVR8.h **** 			static inline bool Endpoint_IsOUTReceived(void) ATTR_WARN_UNUSED_RESULT ATTR_ALWAYS_INLINE;
 417:lib/lufa/LUFA/Drivers/USB/Core/AVR8/../AVR8/../AVR8/Endpoint_AVR8.h **** 			static inline bool Endpoint_IsOUTReceived(void)
 418:lib/lufa/LUFA/Drivers/USB/Core/AVR8/../AVR8/../AVR8/Endpoint_AVR8.h **** 			{
 419:lib/lufa/LUFA/Drivers/USB/Core/AVR8/../AVR8/../AVR8/Endpoint_AVR8.h **** 				return ((UEINTX & (1 << RXOUTI)) ? true : false);
 420:lib/lufa/LUFA/Drivers/USB/Core/AVR8/../AVR8/../AVR8/Endpoint_AVR8.h **** 			}
 421:lib/lufa/LUFA/Drivers/USB/Core/AVR8/../AVR8/../AVR8/Endpoint_AVR8.h **** 
 422:lib/lufa/LUFA/Drivers/USB/Core/AVR8/../AVR8/../AVR8/Endpoint_AVR8.h **** 			/** Determines if the current CONTROL type endpoint has received a SETUP packet.
 423:lib/lufa/LUFA/Drivers/USB/Core/AVR8/../AVR8/../AVR8/Endpoint_AVR8.h **** 			 *
 424:lib/lufa/LUFA/Drivers/USB/Core/AVR8/../AVR8/../AVR8/Endpoint_AVR8.h **** 			 *  \ingroup Group_EndpointPacketManagement_AVR8
 425:lib/lufa/LUFA/Drivers/USB/Core/AVR8/../AVR8/../AVR8/Endpoint_AVR8.h **** 			 *
 426:lib/lufa/LUFA/Drivers/USB/Core/AVR8/../AVR8/../AVR8/Endpoint_AVR8.h **** 			 *  \return Boolean \c true if the selected endpoint has received a SETUP packet, \c false other
 427:lib/lufa/LUFA/Drivers/USB/Core/AVR8/../AVR8/../AVR8/Endpoint_AVR8.h **** 			 */
 428:lib/lufa/LUFA/Drivers/USB/Core/AVR8/../AVR8/../AVR8/Endpoint_AVR8.h **** 			static inline bool Endpoint_IsSETUPReceived(void) ATTR_WARN_UNUSED_RESULT ATTR_ALWAYS_INLINE;
 429:lib/lufa/LUFA/Drivers/USB/Core/AVR8/../AVR8/../AVR8/Endpoint_AVR8.h **** 			static inline bool Endpoint_IsSETUPReceived(void)
 430:lib/lufa/LUFA/Drivers/USB/Core/AVR8/../AVR8/../AVR8/Endpoint_AVR8.h **** 			{
 431:lib/lufa/LUFA/Drivers/USB/Core/AVR8/../AVR8/../AVR8/Endpoint_AVR8.h **** 				return ((UEINTX & (1 << RXSTPI)) ? true : false);
 432:lib/lufa/LUFA/Drivers/USB/Core/AVR8/../AVR8/../AVR8/Endpoint_AVR8.h **** 			}
 433:lib/lufa/LUFA/Drivers/USB/Core/AVR8/../AVR8/../AVR8/Endpoint_AVR8.h **** 
 434:lib/lufa/LUFA/Drivers/USB/Core/AVR8/../AVR8/../AVR8/Endpoint_AVR8.h **** 			/** Clears a received SETUP packet on the currently selected CONTROL type endpoint, freeing up t
 435:lib/lufa/LUFA/Drivers/USB/Core/AVR8/../AVR8/../AVR8/Endpoint_AVR8.h **** 			 *  endpoint for the next packet.
 436:lib/lufa/LUFA/Drivers/USB/Core/AVR8/../AVR8/../AVR8/Endpoint_AVR8.h **** 			 *
 437:lib/lufa/LUFA/Drivers/USB/Core/AVR8/../AVR8/../AVR8/Endpoint_AVR8.h **** 			 *  \ingroup Group_EndpointPacketManagement_AVR8
 438:lib/lufa/LUFA/Drivers/USB/Core/AVR8/../AVR8/../AVR8/Endpoint_AVR8.h **** 			 *
 439:lib/lufa/LUFA/Drivers/USB/Core/AVR8/../AVR8/../AVR8/Endpoint_AVR8.h **** 			 *  \note This is not applicable for non CONTROL type endpoints.
 440:lib/lufa/LUFA/Drivers/USB/Core/AVR8/../AVR8/../AVR8/Endpoint_AVR8.h **** 			 */
 441:lib/lufa/LUFA/Drivers/USB/Core/AVR8/../AVR8/../AVR8/Endpoint_AVR8.h **** 			static inline void Endpoint_ClearSETUP(void) ATTR_ALWAYS_INLINE;
 442:lib/lufa/LUFA/Drivers/USB/Core/AVR8/../AVR8/../AVR8/Endpoint_AVR8.h **** 			static inline void Endpoint_ClearSETUP(void)
 443:lib/lufa/LUFA/Drivers/USB/Core/AVR8/../AVR8/../AVR8/Endpoint_AVR8.h **** 			{
 444:lib/lufa/LUFA/Drivers/USB/Core/AVR8/../AVR8/../AVR8/Endpoint_AVR8.h **** 				UEINTX &= ~(1 << RXSTPI);
 445:lib/lufa/LUFA/Drivers/USB/Core/AVR8/../AVR8/../AVR8/Endpoint_AVR8.h **** 			}
 446:lib/lufa/LUFA/Drivers/USB/Core/AVR8/../AVR8/../AVR8/Endpoint_AVR8.h **** 
 447:lib/lufa/LUFA/Drivers/USB/Core/AVR8/../AVR8/../AVR8/Endpoint_AVR8.h **** 			/** Sends an IN packet to the host on the currently selected endpoint, freeing up the endpoint f
 448:lib/lufa/LUFA/Drivers/USB/Core/AVR8/../AVR8/../AVR8/Endpoint_AVR8.h **** 			 *  next packet and switching to the alternative endpoint bank if double banked.
 449:lib/lufa/LUFA/Drivers/USB/Core/AVR8/../AVR8/../AVR8/Endpoint_AVR8.h **** 			 *
 450:lib/lufa/LUFA/Drivers/USB/Core/AVR8/../AVR8/../AVR8/Endpoint_AVR8.h **** 			 *  \ingroup Group_EndpointPacketManagement_AVR8
 451:lib/lufa/LUFA/Drivers/USB/Core/AVR8/../AVR8/../AVR8/Endpoint_AVR8.h **** 			 */
 452:lib/lufa/LUFA/Drivers/USB/Core/AVR8/../AVR8/../AVR8/Endpoint_AVR8.h **** 			static inline void Endpoint_ClearIN(void) ATTR_ALWAYS_INLINE;
 453:lib/lufa/LUFA/Drivers/USB/Core/AVR8/../AVR8/../AVR8/Endpoint_AVR8.h **** 			static inline void Endpoint_ClearIN(void)
 454:lib/lufa/LUFA/Drivers/USB/Core/AVR8/../AVR8/../AVR8/Endpoint_AVR8.h **** 			{
 455:lib/lufa/LUFA/Drivers/USB/Core/AVR8/../AVR8/../AVR8/Endpoint_AVR8.h **** 				#if !defined(CONTROL_ONLY_DEVICE)
 456:lib/lufa/LUFA/Drivers/USB/Core/AVR8/../AVR8/../AVR8/Endpoint_AVR8.h **** 					UEINTX &= ~((1 << TXINI) | (1 << FIFOCON));
 457:lib/lufa/LUFA/Drivers/USB/Core/AVR8/../AVR8/../AVR8/Endpoint_AVR8.h **** 				#else
 458:lib/lufa/LUFA/Drivers/USB/Core/AVR8/../AVR8/../AVR8/Endpoint_AVR8.h **** 					UEINTX &= ~(1 << TXINI);
 459:lib/lufa/LUFA/Drivers/USB/Core/AVR8/../AVR8/../AVR8/Endpoint_AVR8.h **** 				#endif
 460:lib/lufa/LUFA/Drivers/USB/Core/AVR8/../AVR8/../AVR8/Endpoint_AVR8.h **** 			}
 461:lib/lufa/LUFA/Drivers/USB/Core/AVR8/../AVR8/../AVR8/Endpoint_AVR8.h **** 
 462:lib/lufa/LUFA/Drivers/USB/Core/AVR8/../AVR8/../AVR8/Endpoint_AVR8.h **** 			/** Acknowledges an OUT packet to the host on the currently selected endpoint, freeing up the en
 463:lib/lufa/LUFA/Drivers/USB/Core/AVR8/../AVR8/../AVR8/Endpoint_AVR8.h **** 			 *  for the next packet and switching to the alternative endpoint bank if double banked.
 464:lib/lufa/LUFA/Drivers/USB/Core/AVR8/../AVR8/../AVR8/Endpoint_AVR8.h **** 			 *
 465:lib/lufa/LUFA/Drivers/USB/Core/AVR8/../AVR8/../AVR8/Endpoint_AVR8.h **** 			 *  \ingroup Group_EndpointPacketManagement_AVR8
 466:lib/lufa/LUFA/Drivers/USB/Core/AVR8/../AVR8/../AVR8/Endpoint_AVR8.h **** 			 */
 467:lib/lufa/LUFA/Drivers/USB/Core/AVR8/../AVR8/../AVR8/Endpoint_AVR8.h **** 			static inline void Endpoint_ClearOUT(void) ATTR_ALWAYS_INLINE;
 468:lib/lufa/LUFA/Drivers/USB/Core/AVR8/../AVR8/../AVR8/Endpoint_AVR8.h **** 			static inline void Endpoint_ClearOUT(void)
 469:lib/lufa/LUFA/Drivers/USB/Core/AVR8/../AVR8/../AVR8/Endpoint_AVR8.h **** 			{
 470:lib/lufa/LUFA/Drivers/USB/Core/AVR8/../AVR8/../AVR8/Endpoint_AVR8.h **** 				#if !defined(CONTROL_ONLY_DEVICE)
 471:lib/lufa/LUFA/Drivers/USB/Core/AVR8/../AVR8/../AVR8/Endpoint_AVR8.h **** 					UEINTX &= ~((1 << RXOUTI) | (1 << FIFOCON));
  88               		.loc 2 471 0
  89 0038 8091 E800 		lds r24,232
  90 003c 8B77      		andi r24,lo8(123)
  91 003e 8093 E800 		sts 232,r24
  92               	.LBE271:
  93               	.LBE270:
  57:lib/lufa/LUFA/Drivers/USB/Core/AVR8/EndpointStream_AVR8.c **** 			{
  94               		.loc 1 57 0
  95 0042 0115      		cp r16,__zero_reg__
  96 0044 1105      		cpc r17,__zero_reg__
  97 0046 01F0      		breq .L6
  59:lib/lufa/LUFA/Drivers/USB/Core/AVR8/EndpointStream_AVR8.c **** 				return ENDPOINT_RWSTREAM_IncompleteTransfer;
  98               		.loc 1 59 0
  99 0048 F801      		movw r30,r16
 100 004a D183      		std Z+1,r29
 101 004c C083      		st Z,r28
  60:lib/lufa/LUFA/Drivers/USB/Core/AVR8/EndpointStream_AVR8.c **** 			}
 102               		.loc 1 60 0
 103 004e 85E0      		ldi r24,lo8(5)
 104 0050 00C0      		rjmp .L3
 105               	.L5:
 106               	.LBB272:
 107               	.LBB273:
 472:lib/lufa/LUFA/Drivers/USB/Core/AVR8/../AVR8/../AVR8/Endpoint_AVR8.h **** 				#else
 473:lib/lufa/LUFA/Drivers/USB/Core/AVR8/../AVR8/../AVR8/Endpoint_AVR8.h **** 					UEINTX &= ~(1 << RXOUTI);
 474:lib/lufa/LUFA/Drivers/USB/Core/AVR8/../AVR8/../AVR8/Endpoint_AVR8.h **** 				#endif
 475:lib/lufa/LUFA/Drivers/USB/Core/AVR8/../AVR8/../AVR8/Endpoint_AVR8.h **** 			}
 476:lib/lufa/LUFA/Drivers/USB/Core/AVR8/../AVR8/../AVR8/Endpoint_AVR8.h **** 
 477:lib/lufa/LUFA/Drivers/USB/Core/AVR8/../AVR8/../AVR8/Endpoint_AVR8.h **** 			/** Stalls the current endpoint, indicating to the host that a logical problem occurred with the
 478:lib/lufa/LUFA/Drivers/USB/Core/AVR8/../AVR8/../AVR8/Endpoint_AVR8.h **** 			 *  indicated endpoint and that the current transfer sequence should be aborted. This provides a
 479:lib/lufa/LUFA/Drivers/USB/Core/AVR8/../AVR8/../AVR8/Endpoint_AVR8.h **** 			 *  way for devices to indicate invalid commands to the host so that the current transfer can be
 480:lib/lufa/LUFA/Drivers/USB/Core/AVR8/../AVR8/../AVR8/Endpoint_AVR8.h **** 			 *  aborted and the host can begin its own recovery sequence.
 481:lib/lufa/LUFA/Drivers/USB/Core/AVR8/../AVR8/../AVR8/Endpoint_AVR8.h **** 			 *
 482:lib/lufa/LUFA/Drivers/USB/Core/AVR8/../AVR8/../AVR8/Endpoint_AVR8.h **** 			 *  The currently selected endpoint remains stalled until either the \ref Endpoint_ClearStall() 
 483:lib/lufa/LUFA/Drivers/USB/Core/AVR8/../AVR8/../AVR8/Endpoint_AVR8.h **** 			 *  is called, or the host issues a CLEAR FEATURE request to the device for the currently select
 484:lib/lufa/LUFA/Drivers/USB/Core/AVR8/../AVR8/../AVR8/Endpoint_AVR8.h **** 			 *  endpoint.
 485:lib/lufa/LUFA/Drivers/USB/Core/AVR8/../AVR8/../AVR8/Endpoint_AVR8.h **** 			 *
 486:lib/lufa/LUFA/Drivers/USB/Core/AVR8/../AVR8/../AVR8/Endpoint_AVR8.h **** 			 *  \ingroup Group_EndpointPacketManagement_AVR8
 487:lib/lufa/LUFA/Drivers/USB/Core/AVR8/../AVR8/../AVR8/Endpoint_AVR8.h **** 			 */
 488:lib/lufa/LUFA/Drivers/USB/Core/AVR8/../AVR8/../AVR8/Endpoint_AVR8.h **** 			static inline void Endpoint_StallTransaction(void) ATTR_ALWAYS_INLINE;
 489:lib/lufa/LUFA/Drivers/USB/Core/AVR8/../AVR8/../AVR8/Endpoint_AVR8.h **** 			static inline void Endpoint_StallTransaction(void)
 490:lib/lufa/LUFA/Drivers/USB/Core/AVR8/../AVR8/../AVR8/Endpoint_AVR8.h **** 			{
 491:lib/lufa/LUFA/Drivers/USB/Core/AVR8/../AVR8/../AVR8/Endpoint_AVR8.h **** 				UECONX |= (1 << STALLRQ);
 492:lib/lufa/LUFA/Drivers/USB/Core/AVR8/../AVR8/../AVR8/Endpoint_AVR8.h **** 			}
 493:lib/lufa/LUFA/Drivers/USB/Core/AVR8/../AVR8/../AVR8/Endpoint_AVR8.h **** 
 494:lib/lufa/LUFA/Drivers/USB/Core/AVR8/../AVR8/../AVR8/Endpoint_AVR8.h **** 			/** Clears the STALL condition on the currently selected endpoint.
 495:lib/lufa/LUFA/Drivers/USB/Core/AVR8/../AVR8/../AVR8/Endpoint_AVR8.h **** 			 *
 496:lib/lufa/LUFA/Drivers/USB/Core/AVR8/../AVR8/../AVR8/Endpoint_AVR8.h **** 			 *  \ingroup Group_EndpointPacketManagement_AVR8
 497:lib/lufa/LUFA/Drivers/USB/Core/AVR8/../AVR8/../AVR8/Endpoint_AVR8.h **** 			 */
 498:lib/lufa/LUFA/Drivers/USB/Core/AVR8/../AVR8/../AVR8/Endpoint_AVR8.h **** 			static inline void Endpoint_ClearStall(void) ATTR_ALWAYS_INLINE;
 499:lib/lufa/LUFA/Drivers/USB/Core/AVR8/../AVR8/../AVR8/Endpoint_AVR8.h **** 			static inline void Endpoint_ClearStall(void)
 500:lib/lufa/LUFA/Drivers/USB/Core/AVR8/../AVR8/../AVR8/Endpoint_AVR8.h **** 			{
 501:lib/lufa/LUFA/Drivers/USB/Core/AVR8/../AVR8/../AVR8/Endpoint_AVR8.h **** 				UECONX |= (1 << STALLRQC);
 502:lib/lufa/LUFA/Drivers/USB/Core/AVR8/../AVR8/../AVR8/Endpoint_AVR8.h **** 			}
 503:lib/lufa/LUFA/Drivers/USB/Core/AVR8/../AVR8/../AVR8/Endpoint_AVR8.h **** 
 504:lib/lufa/LUFA/Drivers/USB/Core/AVR8/../AVR8/../AVR8/Endpoint_AVR8.h **** 			/** Determines if the currently selected endpoint is stalled, \c false otherwise.
 505:lib/lufa/LUFA/Drivers/USB/Core/AVR8/../AVR8/../AVR8/Endpoint_AVR8.h **** 			 *
 506:lib/lufa/LUFA/Drivers/USB/Core/AVR8/../AVR8/../AVR8/Endpoint_AVR8.h **** 			 *  \ingroup Group_EndpointPacketManagement_AVR8
 507:lib/lufa/LUFA/Drivers/USB/Core/AVR8/../AVR8/../AVR8/Endpoint_AVR8.h **** 			 *
 508:lib/lufa/LUFA/Drivers/USB/Core/AVR8/../AVR8/../AVR8/Endpoint_AVR8.h **** 			 *  \return Boolean \c true if the currently selected endpoint is stalled, \c false otherwise.
 509:lib/lufa/LUFA/Drivers/USB/Core/AVR8/../AVR8/../AVR8/Endpoint_AVR8.h **** 			 */
 510:lib/lufa/LUFA/Drivers/USB/Core/AVR8/../AVR8/../AVR8/Endpoint_AVR8.h **** 			static inline bool Endpoint_IsStalled(void) ATTR_WARN_UNUSED_RESULT ATTR_ALWAYS_INLINE;
 511:lib/lufa/LUFA/Drivers/USB/Core/AVR8/../AVR8/../AVR8/Endpoint_AVR8.h **** 			static inline bool Endpoint_IsStalled(void)
 512:lib/lufa/LUFA/Drivers/USB/Core/AVR8/../AVR8/../AVR8/Endpoint_AVR8.h **** 			{
 513:lib/lufa/LUFA/Drivers/USB/Core/AVR8/../AVR8/../AVR8/Endpoint_AVR8.h **** 				return ((UECONX & (1 << STALLRQ)) ? true : false);
 514:lib/lufa/LUFA/Drivers/USB/Core/AVR8/../AVR8/../AVR8/Endpoint_AVR8.h **** 			}
 515:lib/lufa/LUFA/Drivers/USB/Core/AVR8/../AVR8/../AVR8/Endpoint_AVR8.h **** 
 516:lib/lufa/LUFA/Drivers/USB/Core/AVR8/../AVR8/../AVR8/Endpoint_AVR8.h **** 			/** Resets the data toggle of the currently selected endpoint. */
 517:lib/lufa/LUFA/Drivers/USB/Core/AVR8/../AVR8/../AVR8/Endpoint_AVR8.h **** 			static inline void Endpoint_ResetDataToggle(void) ATTR_ALWAYS_INLINE;
 518:lib/lufa/LUFA/Drivers/USB/Core/AVR8/../AVR8/../AVR8/Endpoint_AVR8.h **** 			static inline void Endpoint_ResetDataToggle(void)
 519:lib/lufa/LUFA/Drivers/USB/Core/AVR8/../AVR8/../AVR8/Endpoint_AVR8.h **** 			{
 520:lib/lufa/LUFA/Drivers/USB/Core/AVR8/../AVR8/../AVR8/Endpoint_AVR8.h **** 				UECONX |= (1 << RSTDT);
 521:lib/lufa/LUFA/Drivers/USB/Core/AVR8/../AVR8/../AVR8/Endpoint_AVR8.h **** 			}
 522:lib/lufa/LUFA/Drivers/USB/Core/AVR8/../AVR8/../AVR8/Endpoint_AVR8.h **** 
 523:lib/lufa/LUFA/Drivers/USB/Core/AVR8/../AVR8/../AVR8/Endpoint_AVR8.h **** 			/** Sets the direction of the currently selected endpoint.
 524:lib/lufa/LUFA/Drivers/USB/Core/AVR8/../AVR8/../AVR8/Endpoint_AVR8.h **** 			 *
 525:lib/lufa/LUFA/Drivers/USB/Core/AVR8/../AVR8/../AVR8/Endpoint_AVR8.h **** 			 *  \param[in] DirectionMask  New endpoint direction, as a \c ENDPOINT_DIR_* mask.
 526:lib/lufa/LUFA/Drivers/USB/Core/AVR8/../AVR8/../AVR8/Endpoint_AVR8.h **** 			 */
 527:lib/lufa/LUFA/Drivers/USB/Core/AVR8/../AVR8/../AVR8/Endpoint_AVR8.h **** 			static inline void Endpoint_SetEndpointDirection(const uint8_t DirectionMask) ATTR_ALWAYS_INLINE
 528:lib/lufa/LUFA/Drivers/USB/Core/AVR8/../AVR8/../AVR8/Endpoint_AVR8.h **** 			static inline void Endpoint_SetEndpointDirection(const uint8_t DirectionMask)
 529:lib/lufa/LUFA/Drivers/USB/Core/AVR8/../AVR8/../AVR8/Endpoint_AVR8.h **** 			{
 530:lib/lufa/LUFA/Drivers/USB/Core/AVR8/../AVR8/../AVR8/Endpoint_AVR8.h **** 				UECFG0X = ((UECFG0X & ~(1 << EPDIR)) | (DirectionMask ? (1 << EPDIR) : 0));
 531:lib/lufa/LUFA/Drivers/USB/Core/AVR8/../AVR8/../AVR8/Endpoint_AVR8.h **** 			}
 532:lib/lufa/LUFA/Drivers/USB/Core/AVR8/../AVR8/../AVR8/Endpoint_AVR8.h **** 
 533:lib/lufa/LUFA/Drivers/USB/Core/AVR8/../AVR8/../AVR8/Endpoint_AVR8.h **** 			/** Reads one byte from the currently selected endpoint's bank, for OUT direction endpoints.
 534:lib/lufa/LUFA/Drivers/USB/Core/AVR8/../AVR8/../AVR8/Endpoint_AVR8.h **** 			 *
 535:lib/lufa/LUFA/Drivers/USB/Core/AVR8/../AVR8/../AVR8/Endpoint_AVR8.h **** 			 *  \ingroup Group_EndpointPrimitiveRW_AVR8
 536:lib/lufa/LUFA/Drivers/USB/Core/AVR8/../AVR8/../AVR8/Endpoint_AVR8.h **** 			 *
 537:lib/lufa/LUFA/Drivers/USB/Core/AVR8/../AVR8/../AVR8/Endpoint_AVR8.h **** 			 *  \return Next byte in the currently selected endpoint's FIFO buffer.
 538:lib/lufa/LUFA/Drivers/USB/Core/AVR8/../AVR8/../AVR8/Endpoint_AVR8.h **** 			 */
 539:lib/lufa/LUFA/Drivers/USB/Core/AVR8/../AVR8/../AVR8/Endpoint_AVR8.h **** 			static inline uint8_t Endpoint_Read_8(void) ATTR_WARN_UNUSED_RESULT ATTR_ALWAYS_INLINE;
 540:lib/lufa/LUFA/Drivers/USB/Core/AVR8/../AVR8/../AVR8/Endpoint_AVR8.h **** 			static inline uint8_t Endpoint_Read_8(void)
 541:lib/lufa/LUFA/Drivers/USB/Core/AVR8/../AVR8/../AVR8/Endpoint_AVR8.h **** 			{
 542:lib/lufa/LUFA/Drivers/USB/Core/AVR8/../AVR8/../AVR8/Endpoint_AVR8.h **** 				return UEDATX;
 543:lib/lufa/LUFA/Drivers/USB/Core/AVR8/../AVR8/../AVR8/Endpoint_AVR8.h **** 			}
 544:lib/lufa/LUFA/Drivers/USB/Core/AVR8/../AVR8/../AVR8/Endpoint_AVR8.h **** 
 545:lib/lufa/LUFA/Drivers/USB/Core/AVR8/../AVR8/../AVR8/Endpoint_AVR8.h **** 			/** Writes one byte to the currently selected endpoint's bank, for IN direction endpoints.
 546:lib/lufa/LUFA/Drivers/USB/Core/AVR8/../AVR8/../AVR8/Endpoint_AVR8.h **** 			 *
 547:lib/lufa/LUFA/Drivers/USB/Core/AVR8/../AVR8/../AVR8/Endpoint_AVR8.h **** 			 *  \ingroup Group_EndpointPrimitiveRW_AVR8
 548:lib/lufa/LUFA/Drivers/USB/Core/AVR8/../AVR8/../AVR8/Endpoint_AVR8.h **** 			 *
 549:lib/lufa/LUFA/Drivers/USB/Core/AVR8/../AVR8/../AVR8/Endpoint_AVR8.h **** 			 *  \param[in] Data  Data to write into the the currently selected endpoint's FIFO buffer.
 550:lib/lufa/LUFA/Drivers/USB/Core/AVR8/../AVR8/../AVR8/Endpoint_AVR8.h **** 			 */
 551:lib/lufa/LUFA/Drivers/USB/Core/AVR8/../AVR8/../AVR8/Endpoint_AVR8.h **** 			static inline void Endpoint_Write_8(const uint8_t Data) ATTR_ALWAYS_INLINE;
 552:lib/lufa/LUFA/Drivers/USB/Core/AVR8/../AVR8/../AVR8/Endpoint_AVR8.h **** 			static inline void Endpoint_Write_8(const uint8_t Data)
 553:lib/lufa/LUFA/Drivers/USB/Core/AVR8/../AVR8/../AVR8/Endpoint_AVR8.h **** 			{
 554:lib/lufa/LUFA/Drivers/USB/Core/AVR8/../AVR8/../AVR8/Endpoint_AVR8.h **** 				UEDATX = Data;
 555:lib/lufa/LUFA/Drivers/USB/Core/AVR8/../AVR8/../AVR8/Endpoint_AVR8.h **** 			}
 556:lib/lufa/LUFA/Drivers/USB/Core/AVR8/../AVR8/../AVR8/Endpoint_AVR8.h **** 
 557:lib/lufa/LUFA/Drivers/USB/Core/AVR8/../AVR8/../AVR8/Endpoint_AVR8.h **** 			/** Discards one byte from the currently selected endpoint's bank, for OUT direction endpoints.
 558:lib/lufa/LUFA/Drivers/USB/Core/AVR8/../AVR8/../AVR8/Endpoint_AVR8.h **** 			 *
 559:lib/lufa/LUFA/Drivers/USB/Core/AVR8/../AVR8/../AVR8/Endpoint_AVR8.h **** 			 *  \ingroup Group_EndpointPrimitiveRW_AVR8
 560:lib/lufa/LUFA/Drivers/USB/Core/AVR8/../AVR8/../AVR8/Endpoint_AVR8.h **** 			 */
 561:lib/lufa/LUFA/Drivers/USB/Core/AVR8/../AVR8/../AVR8/Endpoint_AVR8.h **** 			static inline void Endpoint_Discard_8(void) ATTR_ALWAYS_INLINE;
 562:lib/lufa/LUFA/Drivers/USB/Core/AVR8/../AVR8/../AVR8/Endpoint_AVR8.h **** 			static inline void Endpoint_Discard_8(void)
 563:lib/lufa/LUFA/Drivers/USB/Core/AVR8/../AVR8/../AVR8/Endpoint_AVR8.h **** 			{
 564:lib/lufa/LUFA/Drivers/USB/Core/AVR8/../AVR8/../AVR8/Endpoint_AVR8.h **** 				uint8_t Dummy;
 565:lib/lufa/LUFA/Drivers/USB/Core/AVR8/../AVR8/../AVR8/Endpoint_AVR8.h **** 
 566:lib/lufa/LUFA/Drivers/USB/Core/AVR8/../AVR8/../AVR8/Endpoint_AVR8.h **** 				Dummy = UEDATX;
 108               		.loc 2 566 0
 109 0052 8091 F100 		lds r24,241
 110               	.LBE273:
 111               	.LBE272:
  64:lib/lufa/LUFA/Drivers/USB/Core/AVR8/EndpointStream_AVR8.c **** 			  return ErrorCode;
  65:lib/lufa/LUFA/Drivers/USB/Core/AVR8/EndpointStream_AVR8.c **** 		}
  66:lib/lufa/LUFA/Drivers/USB/Core/AVR8/EndpointStream_AVR8.c **** 		else
  67:lib/lufa/LUFA/Drivers/USB/Core/AVR8/EndpointStream_AVR8.c **** 		{
  68:lib/lufa/LUFA/Drivers/USB/Core/AVR8/EndpointStream_AVR8.c **** 			Endpoint_Discard_8();
  69:lib/lufa/LUFA/Drivers/USB/Core/AVR8/EndpointStream_AVR8.c **** 			BytesInTransfer++;
 112               		.loc 1 69 0
 113 0056 2196      		adiw r28,1
 114               	.LVL5:
 115 0058 00C0      		rjmp .L4
 116               	.L14:
  70:lib/lufa/LUFA/Drivers/USB/Core/AVR8/EndpointStream_AVR8.c **** 		}
  71:lib/lufa/LUFA/Drivers/USB/Core/AVR8/EndpointStream_AVR8.c **** 	}
  72:lib/lufa/LUFA/Drivers/USB/Core/AVR8/EndpointStream_AVR8.c **** 
  73:lib/lufa/LUFA/Drivers/USB/Core/AVR8/EndpointStream_AVR8.c **** 	return ENDPOINT_RWSTREAM_NoError;
 117               		.loc 1 73 0
 118 005a 80E0      		ldi r24,0
 119               	.LVL6:
 120               	.L3:
 121               	/* epilogue start */
  74:lib/lufa/LUFA/Drivers/USB/Core/AVR8/EndpointStream_AVR8.c **** }
 122               		.loc 1 74 0
 123 005c DF91      		pop r29
 124 005e CF91      		pop r28
 125 0060 1F91      		pop r17
 126 0062 0F91      		pop r16
 127               	.LVL7:
 128 0064 FF90      		pop r15
 129 0066 EF90      		pop r14
 130               	.LVL8:
 131 0068 0895      		ret
 132               		.cfi_endproc
 133               	.LFE80:
 135               		.section	.text.Endpoint_Null_Stream,"ax",@progbits
 136               	.global	Endpoint_Null_Stream
 138               	Endpoint_Null_Stream:
 139               	.LFB81:
  75:lib/lufa/LUFA/Drivers/USB/Core/AVR8/EndpointStream_AVR8.c **** 
  76:lib/lufa/LUFA/Drivers/USB/Core/AVR8/EndpointStream_AVR8.c **** uint8_t Endpoint_Null_Stream(uint16_t Length,
  77:lib/lufa/LUFA/Drivers/USB/Core/AVR8/EndpointStream_AVR8.c ****                              uint16_t* const BytesProcessed)
  78:lib/lufa/LUFA/Drivers/USB/Core/AVR8/EndpointStream_AVR8.c **** {
 140               		.loc 1 78 0
 141               		.cfi_startproc
 142               	.LVL9:
 143 0000 EF92      		push r14
 144               	.LCFI6:
 145               		.cfi_def_cfa_offset 3
 146               		.cfi_offset 14, -2
 147 0002 FF92      		push r15
 148               	.LCFI7:
 149               		.cfi_def_cfa_offset 4
 150               		.cfi_offset 15, -3
 151 0004 0F93      		push r16
 152               	.LCFI8:
 153               		.cfi_def_cfa_offset 5
 154               		.cfi_offset 16, -4
 155 0006 1F93      		push r17
 156               	.LCFI9:
 157               		.cfi_def_cfa_offset 6
 158               		.cfi_offset 17, -5
 159 0008 CF93      		push r28
 160               	.LCFI10:
 161               		.cfi_def_cfa_offset 7
 162               		.cfi_offset 28, -6
 163 000a DF93      		push r29
 164               	.LCFI11:
 165               		.cfi_def_cfa_offset 8
 166               		.cfi_offset 29, -7
 167               	/* prologue: function */
 168               	/* frame size = 0 */
 169               	/* stack size = 6 */
 170               	.L__stack_usage = 6
 171 000c 7C01      		movw r14,r24
 172 000e 8B01      		movw r16,r22
  79:lib/lufa/LUFA/Drivers/USB/Core/AVR8/EndpointStream_AVR8.c **** 	uint8_t  ErrorCode;
  80:lib/lufa/LUFA/Drivers/USB/Core/AVR8/EndpointStream_AVR8.c **** 	uint16_t BytesInTransfer = BytesProcessed ? *BytesProcessed : 0;
 173               		.loc 1 80 0
 174 0010 6115      		cp r22,__zero_reg__
 175 0012 7105      		cpc r23,__zero_reg__
 176 0014 01F0      		breq .L23
 177               		.loc 1 80 0 is_stmt 0 discriminator 1
 178 0016 FB01      		movw r30,r22
 179 0018 C081      		ld r28,Z
 180 001a D181      		ldd r29,Z+1
 181 001c 00C0      		rjmp .L20
 182               	.LVL10:
 183               	.L23:
 184               		.loc 1 80 0
 185 001e C0E0      		ldi r28,0
 186 0020 D0E0      		ldi r29,0
 187               	.LVL11:
 188               	.L20:
  81:lib/lufa/LUFA/Drivers/USB/Core/AVR8/EndpointStream_AVR8.c **** 
  82:lib/lufa/LUFA/Drivers/USB/Core/AVR8/EndpointStream_AVR8.c **** 	if ((ErrorCode = Endpoint_WaitUntilReady()))
  83:lib/lufa/LUFA/Drivers/USB/Core/AVR8/EndpointStream_AVR8.c **** 	  return ErrorCode;
  84:lib/lufa/LUFA/Drivers/USB/Core/AVR8/EndpointStream_AVR8.c **** 
  85:lib/lufa/LUFA/Drivers/USB/Core/AVR8/EndpointStream_AVR8.c **** 	while (BytesInTransfer < Length)
  86:lib/lufa/LUFA/Drivers/USB/Core/AVR8/EndpointStream_AVR8.c **** 	{
  87:lib/lufa/LUFA/Drivers/USB/Core/AVR8/EndpointStream_AVR8.c **** 		if (!(Endpoint_IsReadWriteAllowed()))
  88:lib/lufa/LUFA/Drivers/USB/Core/AVR8/EndpointStream_AVR8.c **** 		{
  89:lib/lufa/LUFA/Drivers/USB/Core/AVR8/EndpointStream_AVR8.c **** 			Endpoint_ClearIN();
  90:lib/lufa/LUFA/Drivers/USB/Core/AVR8/EndpointStream_AVR8.c **** 
  91:lib/lufa/LUFA/Drivers/USB/Core/AVR8/EndpointStream_AVR8.c **** 			if (BytesProcessed != NULL)
  92:lib/lufa/LUFA/Drivers/USB/Core/AVR8/EndpointStream_AVR8.c **** 			{
  93:lib/lufa/LUFA/Drivers/USB/Core/AVR8/EndpointStream_AVR8.c **** 				*BytesProcessed = BytesInTransfer;
  94:lib/lufa/LUFA/Drivers/USB/Core/AVR8/EndpointStream_AVR8.c **** 				return ENDPOINT_RWSTREAM_IncompleteTransfer;
  95:lib/lufa/LUFA/Drivers/USB/Core/AVR8/EndpointStream_AVR8.c **** 			}
  96:lib/lufa/LUFA/Drivers/USB/Core/AVR8/EndpointStream_AVR8.c **** 
  97:lib/lufa/LUFA/Drivers/USB/Core/AVR8/EndpointStream_AVR8.c **** 			if ((ErrorCode = Endpoint_WaitUntilReady()))
 189               		.loc 1 97 0 is_stmt 1
 190 0022 0E94 0000 		call Endpoint_WaitUntilReady
 191               	.LVL12:
 192 0026 8111      		cpse r24,__zero_reg__
 193 0028 00C0      		rjmp .L17
 194               	.LVL13:
 195               	.L18:
  85:lib/lufa/LUFA/Drivers/USB/Core/AVR8/EndpointStream_AVR8.c **** 	{
 196               		.loc 1 85 0
 197 002a CE15      		cp r28,r14
 198 002c DF05      		cpc r29,r15
 199 002e 00F4      		brsh .L27
 200               	.LBB274:
 201               	.LBB275:
 360:lib/lufa/LUFA/Drivers/USB/Core/AVR8/../AVR8/../AVR8/Endpoint_AVR8.h **** 			}
 202               		.loc 2 360 0
 203 0030 8091 E800 		lds r24,232
 204               	.LBE275:
 205               	.LBE274:
  87:lib/lufa/LUFA/Drivers/USB/Core/AVR8/EndpointStream_AVR8.c **** 		{
 206               		.loc 1 87 0
 207 0034 85FD      		sbrc r24,5
 208 0036 00C0      		rjmp .L19
 209               	.LBB276:
 210               	.LBB277:
 456:lib/lufa/LUFA/Drivers/USB/Core/AVR8/../AVR8/../AVR8/Endpoint_AVR8.h **** 				#else
 211               		.loc 2 456 0
 212 0038 8091 E800 		lds r24,232
 213 003c 8E77      		andi r24,lo8(126)
 214 003e 8093 E800 		sts 232,r24
 215               	.LBE277:
 216               	.LBE276:
  91:lib/lufa/LUFA/Drivers/USB/Core/AVR8/EndpointStream_AVR8.c **** 			{
 217               		.loc 1 91 0
 218 0042 0115      		cp r16,__zero_reg__
 219 0044 1105      		cpc r17,__zero_reg__
 220 0046 01F0      		breq .L20
  93:lib/lufa/LUFA/Drivers/USB/Core/AVR8/EndpointStream_AVR8.c **** 				return ENDPOINT_RWSTREAM_IncompleteTransfer;
 221               		.loc 1 93 0
 222 0048 F801      		movw r30,r16
 223 004a D183      		std Z+1,r29
 224 004c C083      		st Z,r28
  94:lib/lufa/LUFA/Drivers/USB/Core/AVR8/EndpointStream_AVR8.c **** 			}
 225               		.loc 1 94 0
 226 004e 85E0      		ldi r24,lo8(5)
 227 0050 00C0      		rjmp .L17
 228               	.L19:
 229               	.LVL14:
 230               	.LBB278:
 231               	.LBB279:
 554:lib/lufa/LUFA/Drivers/USB/Core/AVR8/../AVR8/../AVR8/Endpoint_AVR8.h **** 			}
 232               		.loc 2 554 0
 233 0052 1092 F100 		sts 241,__zero_reg__
 234               	.LVL15:
 235               	.LBE279:
 236               	.LBE278:
  98:lib/lufa/LUFA/Drivers/USB/Core/AVR8/EndpointStream_AVR8.c **** 			  return ErrorCode;
  99:lib/lufa/LUFA/Drivers/USB/Core/AVR8/EndpointStream_AVR8.c **** 		}
 100:lib/lufa/LUFA/Drivers/USB/Core/AVR8/EndpointStream_AVR8.c **** 		else
 101:lib/lufa/LUFA/Drivers/USB/Core/AVR8/EndpointStream_AVR8.c **** 		{
 102:lib/lufa/LUFA/Drivers/USB/Core/AVR8/EndpointStream_AVR8.c **** 			Endpoint_Write_8(0);
 103:lib/lufa/LUFA/Drivers/USB/Core/AVR8/EndpointStream_AVR8.c **** 			BytesInTransfer++;
 237               		.loc 1 103 0
 238 0056 2196      		adiw r28,1
 239               	.LVL16:
 240 0058 00C0      		rjmp .L18
 241               	.L27:
 104:lib/lufa/LUFA/Drivers/USB/Core/AVR8/EndpointStream_AVR8.c **** 		}
 105:lib/lufa/LUFA/Drivers/USB/Core/AVR8/EndpointStream_AVR8.c **** 	}
 106:lib/lufa/LUFA/Drivers/USB/Core/AVR8/EndpointStream_AVR8.c **** 
 107:lib/lufa/LUFA/Drivers/USB/Core/AVR8/EndpointStream_AVR8.c **** 	return ENDPOINT_RWSTREAM_NoError;
 242               		.loc 1 107 0
 243 005a 80E0      		ldi r24,0
 244               	.LVL17:
 245               	.L17:
 246               	/* epilogue start */
 108:lib/lufa/LUFA/Drivers/USB/Core/AVR8/EndpointStream_AVR8.c **** }
 247               		.loc 1 108 0
 248 005c DF91      		pop r29
 249 005e CF91      		pop r28
 250 0060 1F91      		pop r17
 251 0062 0F91      		pop r16
 252               	.LVL18:
 253 0064 FF90      		pop r15
 254 0066 EF90      		pop r14
 255               	.LVL19:
 256 0068 0895      		ret
 257               		.cfi_endproc
 258               	.LFE81:
 260               		.section	.text.Endpoint_Write_Stream_LE,"ax",@progbits
 261               	.global	Endpoint_Write_Stream_LE
 263               	Endpoint_Write_Stream_LE:
 264               	.LFB82:
 265               		.file 3 "lib/lufa/LUFA/Drivers/USB/Core/AVR8/Template/Template_Endpoint_RW.c"
   1:lib/lufa/LUFA/Drivers/USB/Core/AVR8/Template/Template_Endpoint_RW.c **** /*
   2:lib/lufa/LUFA/Drivers/USB/Core/AVR8/Template/Template_Endpoint_RW.c ****              LUFA Library
   3:lib/lufa/LUFA/Drivers/USB/Core/AVR8/Template/Template_Endpoint_RW.c ****      Copyright (C) Dean Camera, 2019.
   4:lib/lufa/LUFA/Drivers/USB/Core/AVR8/Template/Template_Endpoint_RW.c **** 
   5:lib/lufa/LUFA/Drivers/USB/Core/AVR8/Template/Template_Endpoint_RW.c ****   dean [at] fourwalledcubicle [dot] com
   6:lib/lufa/LUFA/Drivers/USB/Core/AVR8/Template/Template_Endpoint_RW.c ****            www.lufa-lib.org
   7:lib/lufa/LUFA/Drivers/USB/Core/AVR8/Template/Template_Endpoint_RW.c **** */
   8:lib/lufa/LUFA/Drivers/USB/Core/AVR8/Template/Template_Endpoint_RW.c **** 
   9:lib/lufa/LUFA/Drivers/USB/Core/AVR8/Template/Template_Endpoint_RW.c **** /*
  10:lib/lufa/LUFA/Drivers/USB/Core/AVR8/Template/Template_Endpoint_RW.c ****   Copyright 2019  Dean Camera (dean [at] fourwalledcubicle [dot] com)
  11:lib/lufa/LUFA/Drivers/USB/Core/AVR8/Template/Template_Endpoint_RW.c **** 
  12:lib/lufa/LUFA/Drivers/USB/Core/AVR8/Template/Template_Endpoint_RW.c ****   Permission to use, copy, modify, distribute, and sell this
  13:lib/lufa/LUFA/Drivers/USB/Core/AVR8/Template/Template_Endpoint_RW.c ****   software and its documentation for any purpose is hereby granted
  14:lib/lufa/LUFA/Drivers/USB/Core/AVR8/Template/Template_Endpoint_RW.c ****   without fee, provided that the above copyright notice appear in
  15:lib/lufa/LUFA/Drivers/USB/Core/AVR8/Template/Template_Endpoint_RW.c ****   all copies and that both that the copyright notice and this
  16:lib/lufa/LUFA/Drivers/USB/Core/AVR8/Template/Template_Endpoint_RW.c ****   permission notice and warranty disclaimer appear in supporting
  17:lib/lufa/LUFA/Drivers/USB/Core/AVR8/Template/Template_Endpoint_RW.c ****   documentation, and that the name of the author not be used in
  18:lib/lufa/LUFA/Drivers/USB/Core/AVR8/Template/Template_Endpoint_RW.c ****   advertising or publicity pertaining to distribution of the
  19:lib/lufa/LUFA/Drivers/USB/Core/AVR8/Template/Template_Endpoint_RW.c ****   software without specific, written prior permission.
  20:lib/lufa/LUFA/Drivers/USB/Core/AVR8/Template/Template_Endpoint_RW.c **** 
  21:lib/lufa/LUFA/Drivers/USB/Core/AVR8/Template/Template_Endpoint_RW.c ****   The author disclaims all warranties with regard to this
  22:lib/lufa/LUFA/Drivers/USB/Core/AVR8/Template/Template_Endpoint_RW.c ****   software, including all implied warranties of merchantability
  23:lib/lufa/LUFA/Drivers/USB/Core/AVR8/Template/Template_Endpoint_RW.c ****   and fitness.  In no event shall the author be liable for any
  24:lib/lufa/LUFA/Drivers/USB/Core/AVR8/Template/Template_Endpoint_RW.c ****   special, indirect or consequential damages or any damages
  25:lib/lufa/LUFA/Drivers/USB/Core/AVR8/Template/Template_Endpoint_RW.c ****   whatsoever resulting from loss of use, data or profits, whether
  26:lib/lufa/LUFA/Drivers/USB/Core/AVR8/Template/Template_Endpoint_RW.c ****   in an action of contract, negligence or other tortious action,
  27:lib/lufa/LUFA/Drivers/USB/Core/AVR8/Template/Template_Endpoint_RW.c ****   arising out of or in connection with the use or performance of
  28:lib/lufa/LUFA/Drivers/USB/Core/AVR8/Template/Template_Endpoint_RW.c ****   this software.
  29:lib/lufa/LUFA/Drivers/USB/Core/AVR8/Template/Template_Endpoint_RW.c **** */
  30:lib/lufa/LUFA/Drivers/USB/Core/AVR8/Template/Template_Endpoint_RW.c **** 
  31:lib/lufa/LUFA/Drivers/USB/Core/AVR8/Template/Template_Endpoint_RW.c **** #if defined(TEMPLATE_FUNC_NAME)
  32:lib/lufa/LUFA/Drivers/USB/Core/AVR8/Template/Template_Endpoint_RW.c **** 
  33:lib/lufa/LUFA/Drivers/USB/Core/AVR8/Template/Template_Endpoint_RW.c **** uint8_t TEMPLATE_FUNC_NAME (TEMPLATE_BUFFER_TYPE const Buffer,
  34:lib/lufa/LUFA/Drivers/USB/Core/AVR8/Template/Template_Endpoint_RW.c ****                             uint16_t Length,
  35:lib/lufa/LUFA/Drivers/USB/Core/AVR8/Template/Template_Endpoint_RW.c ****                             uint16_t* const BytesProcessed)
  36:lib/lufa/LUFA/Drivers/USB/Core/AVR8/Template/Template_Endpoint_RW.c **** {
 266               		.loc 3 36 0
 267               		.cfi_startproc
 268               	.LVL20:
 269 0000 CF92      		push r12
 270               	.LCFI12:
 271               		.cfi_def_cfa_offset 3
 272               		.cfi_offset 12, -2
 273 0002 DF92      		push r13
 274               	.LCFI13:
 275               		.cfi_def_cfa_offset 4
 276               		.cfi_offset 13, -3
 277 0004 EF92      		push r14
 278               	.LCFI14:
 279               		.cfi_def_cfa_offset 5
 280               		.cfi_offset 14, -4
 281 0006 FF92      		push r15
 282               	.LCFI15:
 283               		.cfi_def_cfa_offset 6
 284               		.cfi_offset 15, -5
 285 0008 0F93      		push r16
 286               	.LCFI16:
 287               		.cfi_def_cfa_offset 7
 288               		.cfi_offset 16, -6
 289 000a 1F93      		push r17
 290               	.LCFI17:
 291               		.cfi_def_cfa_offset 8
 292               		.cfi_offset 17, -7
 293 000c CF93      		push r28
 294               	.LCFI18:
 295               		.cfi_def_cfa_offset 9
 296               		.cfi_offset 28, -8
 297 000e DF93      		push r29
 298               	.LCFI19:
 299               		.cfi_def_cfa_offset 10
 300               		.cfi_offset 29, -9
 301               	/* prologue: function */
 302               	/* frame size = 0 */
 303               	/* stack size = 8 */
 304               	.L__stack_usage = 8
 305 0010 EC01      		movw r28,r24
 306 0012 8B01      		movw r16,r22
 307 0014 7A01      		movw r14,r20
 308               	.LVL21:
  37:lib/lufa/LUFA/Drivers/USB/Core/AVR8/Template/Template_Endpoint_RW.c **** 	uint8_t* DataStream      = ((uint8_t*)Buffer + TEMPLATE_BUFFER_OFFSET(Length));
  38:lib/lufa/LUFA/Drivers/USB/Core/AVR8/Template/Template_Endpoint_RW.c **** 	uint16_t BytesInTransfer = 0;
  39:lib/lufa/LUFA/Drivers/USB/Core/AVR8/Template/Template_Endpoint_RW.c **** 	uint8_t  ErrorCode;
  40:lib/lufa/LUFA/Drivers/USB/Core/AVR8/Template/Template_Endpoint_RW.c **** 
  41:lib/lufa/LUFA/Drivers/USB/Core/AVR8/Template/Template_Endpoint_RW.c **** 	if ((ErrorCode = Endpoint_WaitUntilReady()))
 309               		.loc 3 41 0
 310 0016 0E94 0000 		call Endpoint_WaitUntilReady
 311               	.LVL22:
 312 001a 8111      		cpse r24,__zero_reg__
 313 001c 00C0      		rjmp .L29
  42:lib/lufa/LUFA/Drivers/USB/Core/AVR8/Template/Template_Endpoint_RW.c **** 	  return ErrorCode;
  43:lib/lufa/LUFA/Drivers/USB/Core/AVR8/Template/Template_Endpoint_RW.c **** 
  44:lib/lufa/LUFA/Drivers/USB/Core/AVR8/Template/Template_Endpoint_RW.c **** 	if (BytesProcessed != NULL)
 314               		.loc 3 44 0
 315 001e E114      		cp r14,__zero_reg__
 316 0020 F104      		cpc r15,__zero_reg__
 317 0022 01F0      		breq .L30
  45:lib/lufa/LUFA/Drivers/USB/Core/AVR8/Template/Template_Endpoint_RW.c **** 	{
  46:lib/lufa/LUFA/Drivers/USB/Core/AVR8/Template/Template_Endpoint_RW.c **** 		Length -= *BytesProcessed;
 318               		.loc 3 46 0
 319 0024 F701      		movw r30,r14
 320 0026 8081      		ld r24,Z
 321 0028 9181      		ldd r25,Z+1
 322               	.LVL23:
 323 002a 081B      		sub r16,r24
 324 002c 190B      		sbc r17,r25
 325               	.LVL24:
  47:lib/lufa/LUFA/Drivers/USB/Core/AVR8/Template/Template_Endpoint_RW.c **** 		TEMPLATE_BUFFER_MOVE(DataStream, *BytesProcessed);
 326               		.loc 3 47 0
 327 002e C80F      		add r28,r24
 328 0030 D91F      		adc r29,r25
 329               	.LVL25:
 330               	.L30:
  37:lib/lufa/LUFA/Drivers/USB/Core/AVR8/Template/Template_Endpoint_RW.c **** 	uint16_t BytesInTransfer = 0;
 331               		.loc 3 37 0
 332 0032 C12C      		mov r12,__zero_reg__
 333 0034 D12C      		mov r13,__zero_reg__
 334               	.LVL26:
 335               	.L31:
  48:lib/lufa/LUFA/Drivers/USB/Core/AVR8/Template/Template_Endpoint_RW.c **** 	}
  49:lib/lufa/LUFA/Drivers/USB/Core/AVR8/Template/Template_Endpoint_RW.c **** 
  50:lib/lufa/LUFA/Drivers/USB/Core/AVR8/Template/Template_Endpoint_RW.c **** 	while (Length)
 336               		.loc 3 50 0
 337 0036 0115      		cp r16,__zero_reg__
 338 0038 1105      		cpc r17,__zero_reg__
 339 003a 01F0      		breq .L39
 340               	.LBB280:
 341               	.LBB281:
 360:lib/lufa/LUFA/Drivers/USB/Core/AVR8/../AVR8/../AVR8/Endpoint_AVR8.h **** 			}
 342               		.loc 2 360 0
 343 003c 8091 E800 		lds r24,232
 344               	.LBE281:
 345               	.LBE280:
  51:lib/lufa/LUFA/Drivers/USB/Core/AVR8/Template/Template_Endpoint_RW.c **** 	{
  52:lib/lufa/LUFA/Drivers/USB/Core/AVR8/Template/Template_Endpoint_RW.c **** 		if (!(Endpoint_IsReadWriteAllowed()))
 346               		.loc 3 52 0
 347 0040 85FD      		sbrc r24,5
 348 0042 00C0      		rjmp .L32
 349               	.LBB282:
 350               	.LBB283:
 456:lib/lufa/LUFA/Drivers/USB/Core/AVR8/../AVR8/../AVR8/Endpoint_AVR8.h **** 				#else
 351               		.loc 2 456 0
 352 0044 8091 E800 		lds r24,232
 353 0048 8E77      		andi r24,lo8(126)
 354 004a 8093 E800 		sts 232,r24
 355               	.LBE283:
 356               	.LBE282:
  53:lib/lufa/LUFA/Drivers/USB/Core/AVR8/Template/Template_Endpoint_RW.c **** 		{
  54:lib/lufa/LUFA/Drivers/USB/Core/AVR8/Template/Template_Endpoint_RW.c **** 			TEMPLATE_CLEAR_ENDPOINT();
  55:lib/lufa/LUFA/Drivers/USB/Core/AVR8/Template/Template_Endpoint_RW.c **** 
  56:lib/lufa/LUFA/Drivers/USB/Core/AVR8/Template/Template_Endpoint_RW.c **** 			#if !defined(INTERRUPT_CONTROL_ENDPOINT)
  57:lib/lufa/LUFA/Drivers/USB/Core/AVR8/Template/Template_Endpoint_RW.c **** 			USB_USBTask();
  58:lib/lufa/LUFA/Drivers/USB/Core/AVR8/Template/Template_Endpoint_RW.c **** 			#endif
  59:lib/lufa/LUFA/Drivers/USB/Core/AVR8/Template/Template_Endpoint_RW.c **** 
  60:lib/lufa/LUFA/Drivers/USB/Core/AVR8/Template/Template_Endpoint_RW.c **** 			if (BytesProcessed != NULL)
 357               		.loc 3 60 0
 358 004e E114      		cp r14,__zero_reg__
 359 0050 F104      		cpc r15,__zero_reg__
 360 0052 01F0      		breq .L33
  61:lib/lufa/LUFA/Drivers/USB/Core/AVR8/Template/Template_Endpoint_RW.c **** 			{
  62:lib/lufa/LUFA/Drivers/USB/Core/AVR8/Template/Template_Endpoint_RW.c **** 				*BytesProcessed += BytesInTransfer;
 361               		.loc 3 62 0
 362 0054 F701      		movw r30,r14
 363 0056 8081      		ld r24,Z
 364 0058 9181      		ldd r25,Z+1
 365 005a C80E      		add r12,r24
 366 005c D91E      		adc r13,r25
 367               	.LVL27:
 368 005e D182      		std Z+1,r13
 369 0060 C082      		st Z,r12
  63:lib/lufa/LUFA/Drivers/USB/Core/AVR8/Template/Template_Endpoint_RW.c **** 				return ENDPOINT_RWSTREAM_IncompleteTransfer;
 370               		.loc 3 63 0
 371 0062 85E0      		ldi r24,lo8(5)
 372 0064 00C0      		rjmp .L29
 373               	.LVL28:
 374               	.L33:
  64:lib/lufa/LUFA/Drivers/USB/Core/AVR8/Template/Template_Endpoint_RW.c **** 			}
  65:lib/lufa/LUFA/Drivers/USB/Core/AVR8/Template/Template_Endpoint_RW.c **** 
  66:lib/lufa/LUFA/Drivers/USB/Core/AVR8/Template/Template_Endpoint_RW.c **** 			if ((ErrorCode = Endpoint_WaitUntilReady()))
 375               		.loc 3 66 0
 376 0066 0E94 0000 		call Endpoint_WaitUntilReady
 377               	.LVL29:
 378 006a 8823      		tst r24
 379 006c 01F0      		breq .L31
 380 006e 00C0      		rjmp .L29
 381               	.LVL30:
 382               	.L32:
  67:lib/lufa/LUFA/Drivers/USB/Core/AVR8/Template/Template_Endpoint_RW.c **** 			  return ErrorCode;
  68:lib/lufa/LUFA/Drivers/USB/Core/AVR8/Template/Template_Endpoint_RW.c **** 		}
  69:lib/lufa/LUFA/Drivers/USB/Core/AVR8/Template/Template_Endpoint_RW.c **** 		else
  70:lib/lufa/LUFA/Drivers/USB/Core/AVR8/Template/Template_Endpoint_RW.c **** 		{
  71:lib/lufa/LUFA/Drivers/USB/Core/AVR8/Template/Template_Endpoint_RW.c **** 			TEMPLATE_TRANSFER_BYTE(DataStream);
 383               		.loc 3 71 0
 384 0070 8991      		ld r24,Y+
 385               	.LVL31:
 386               	.LBB284:
 387               	.LBB285:
 554:lib/lufa/LUFA/Drivers/USB/Core/AVR8/../AVR8/../AVR8/Endpoint_AVR8.h **** 			}
 388               		.loc 2 554 0
 389 0072 8093 F100 		sts 241,r24
 390               	.LVL32:
 391               	.LBE285:
 392               	.LBE284:
  72:lib/lufa/LUFA/Drivers/USB/Core/AVR8/Template/Template_Endpoint_RW.c **** 			TEMPLATE_BUFFER_MOVE(DataStream, 1);
  73:lib/lufa/LUFA/Drivers/USB/Core/AVR8/Template/Template_Endpoint_RW.c **** 			Length--;
 393               		.loc 3 73 0
 394 0076 0150      		subi r16,1
 395 0078 1109      		sbc r17,__zero_reg__
 396               	.LVL33:
  74:lib/lufa/LUFA/Drivers/USB/Core/AVR8/Template/Template_Endpoint_RW.c **** 			BytesInTransfer++;
 397               		.loc 3 74 0
 398 007a FFEF      		ldi r31,-1
 399 007c CF1A      		sub r12,r31
 400 007e DF0A      		sbc r13,r31
 401               	.LVL34:
 402 0080 00C0      		rjmp .L31
 403               	.L39:
  75:lib/lufa/LUFA/Drivers/USB/Core/AVR8/Template/Template_Endpoint_RW.c **** 		}
  76:lib/lufa/LUFA/Drivers/USB/Core/AVR8/Template/Template_Endpoint_RW.c **** 	}
  77:lib/lufa/LUFA/Drivers/USB/Core/AVR8/Template/Template_Endpoint_RW.c **** 
  78:lib/lufa/LUFA/Drivers/USB/Core/AVR8/Template/Template_Endpoint_RW.c **** 	return ENDPOINT_RWSTREAM_NoError;
 404               		.loc 3 78 0
 405 0082 80E0      		ldi r24,0
 406               	.LVL35:
 407               	.L29:
 408               	/* epilogue start */
  79:lib/lufa/LUFA/Drivers/USB/Core/AVR8/Template/Template_Endpoint_RW.c **** }
 409               		.loc 3 79 0
 410 0084 DF91      		pop r29
 411 0086 CF91      		pop r28
 412               	.LVL36:
 413 0088 1F91      		pop r17
 414 008a 0F91      		pop r16
 415               	.LVL37:
 416 008c FF90      		pop r15
 417 008e EF90      		pop r14
 418               	.LVL38:
 419 0090 DF90      		pop r13
 420 0092 CF90      		pop r12
 421 0094 0895      		ret
 422               		.cfi_endproc
 423               	.LFE82:
 425               		.section	.text.Endpoint_Write_Stream_BE,"ax",@progbits
 426               	.global	Endpoint_Write_Stream_BE
 428               	Endpoint_Write_Stream_BE:
 429               	.LFB83:
  36:lib/lufa/LUFA/Drivers/USB/Core/AVR8/Template/Template_Endpoint_RW.c **** 	uint8_t* DataStream      = ((uint8_t*)Buffer + TEMPLATE_BUFFER_OFFSET(Length));
 430               		.loc 3 36 0
 431               		.cfi_startproc
 432               	.LVL39:
 433 0000 CF92      		push r12
 434               	.LCFI20:
 435               		.cfi_def_cfa_offset 3
 436               		.cfi_offset 12, -2
 437 0002 DF92      		push r13
 438               	.LCFI21:
 439               		.cfi_def_cfa_offset 4
 440               		.cfi_offset 13, -3
 441 0004 EF92      		push r14
 442               	.LCFI22:
 443               		.cfi_def_cfa_offset 5
 444               		.cfi_offset 14, -4
 445 0006 FF92      		push r15
 446               	.LCFI23:
 447               		.cfi_def_cfa_offset 6
 448               		.cfi_offset 15, -5
 449 0008 0F93      		push r16
 450               	.LCFI24:
 451               		.cfi_def_cfa_offset 7
 452               		.cfi_offset 16, -6
 453 000a 1F93      		push r17
 454               	.LCFI25:
 455               		.cfi_def_cfa_offset 8
 456               		.cfi_offset 17, -7
 457 000c CF93      		push r28
 458               	.LCFI26:
 459               		.cfi_def_cfa_offset 9
 460               		.cfi_offset 28, -8
 461 000e DF93      		push r29
 462               	.LCFI27:
 463               		.cfi_def_cfa_offset 10
 464               		.cfi_offset 29, -9
 465               	/* prologue: function */
 466               	/* frame size = 0 */
 467               	/* stack size = 8 */
 468               	.L__stack_usage = 8
 469 0010 EC01      		movw r28,r24
 470 0012 8B01      		movw r16,r22
 471 0014 7A01      		movw r14,r20
 472               	.LVL40:
  41:lib/lufa/LUFA/Drivers/USB/Core/AVR8/Template/Template_Endpoint_RW.c **** 	  return ErrorCode;
 473               		.loc 3 41 0
 474 0016 0E94 0000 		call Endpoint_WaitUntilReady
 475               	.LVL41:
 476 001a 8111      		cpse r24,__zero_reg__
 477 001c 00C0      		rjmp .L41
  37:lib/lufa/LUFA/Drivers/USB/Core/AVR8/Template/Template_Endpoint_RW.c **** 	uint16_t BytesInTransfer = 0;
 478               		.loc 3 37 0
 479 001e C801      		movw r24,r16
 480               	.LVL42:
 481 0020 0197      		sbiw r24,1
 482               	.LVL43:
 483 0022 C80F      		add r28,r24
 484 0024 D91F      		adc r29,r25
 485               	.LVL44:
  44:lib/lufa/LUFA/Drivers/USB/Core/AVR8/Template/Template_Endpoint_RW.c **** 	{
 486               		.loc 3 44 0
 487 0026 E114      		cp r14,__zero_reg__
 488 0028 F104      		cpc r15,__zero_reg__
 489 002a 01F0      		breq .L42
  46:lib/lufa/LUFA/Drivers/USB/Core/AVR8/Template/Template_Endpoint_RW.c **** 		TEMPLATE_BUFFER_MOVE(DataStream, *BytesProcessed);
 490               		.loc 3 46 0
 491 002c F701      		movw r30,r14
 492 002e 8081      		ld r24,Z
 493 0030 9181      		ldd r25,Z+1
 494               	.LVL45:
 495 0032 081B      		sub r16,r24
 496 0034 190B      		sbc r17,r25
 497               	.LVL46:
  47:lib/lufa/LUFA/Drivers/USB/Core/AVR8/Template/Template_Endpoint_RW.c **** 	}
 498               		.loc 3 47 0
 499 0036 C81B      		sub r28,r24
 500 0038 D90B      		sbc r29,r25
 501               	.LVL47:
 502               	.L42:
  36:lib/lufa/LUFA/Drivers/USB/Core/AVR8/Template/Template_Endpoint_RW.c **** 	uint8_t* DataStream      = ((uint8_t*)Buffer + TEMPLATE_BUFFER_OFFSET(Length));
 503               		.loc 3 36 0
 504 003a C12C      		mov r12,__zero_reg__
 505 003c D12C      		mov r13,__zero_reg__
 506               	.LVL48:
 507               	.L43:
  50:lib/lufa/LUFA/Drivers/USB/Core/AVR8/Template/Template_Endpoint_RW.c **** 	{
 508               		.loc 3 50 0
 509 003e 0115      		cp r16,__zero_reg__
 510 0040 1105      		cpc r17,__zero_reg__
 511 0042 01F0      		breq .L53
 512               	.LBB286:
 513               	.LBB287:
 360:lib/lufa/LUFA/Drivers/USB/Core/AVR8/../AVR8/../AVR8/Endpoint_AVR8.h **** 			}
 514               		.loc 2 360 0
 515 0044 8091 E800 		lds r24,232
 516               	.LBE287:
 517               	.LBE286:
  52:lib/lufa/LUFA/Drivers/USB/Core/AVR8/Template/Template_Endpoint_RW.c **** 		{
 518               		.loc 3 52 0
 519 0048 85FD      		sbrc r24,5
 520 004a 00C0      		rjmp .L44
 521               	.LBB288:
 522               	.LBB289:
 456:lib/lufa/LUFA/Drivers/USB/Core/AVR8/../AVR8/../AVR8/Endpoint_AVR8.h **** 				#else
 523               		.loc 2 456 0
 524 004c 8091 E800 		lds r24,232
 525 0050 8E77      		andi r24,lo8(126)
 526 0052 8093 E800 		sts 232,r24
 527               	.LBE289:
 528               	.LBE288:
  60:lib/lufa/LUFA/Drivers/USB/Core/AVR8/Template/Template_Endpoint_RW.c **** 			{
 529               		.loc 3 60 0
 530 0056 E114      		cp r14,__zero_reg__
 531 0058 F104      		cpc r15,__zero_reg__
 532 005a 01F0      		breq .L45
  62:lib/lufa/LUFA/Drivers/USB/Core/AVR8/Template/Template_Endpoint_RW.c **** 				return ENDPOINT_RWSTREAM_IncompleteTransfer;
 533               		.loc 3 62 0
 534 005c F701      		movw r30,r14
 535 005e 8081      		ld r24,Z
 536 0060 9181      		ldd r25,Z+1
 537 0062 C80E      		add r12,r24
 538 0064 D91E      		adc r13,r25
 539               	.LVL49:
 540 0066 D182      		std Z+1,r13
 541 0068 C082      		st Z,r12
  63:lib/lufa/LUFA/Drivers/USB/Core/AVR8/Template/Template_Endpoint_RW.c **** 			}
 542               		.loc 3 63 0
 543 006a 85E0      		ldi r24,lo8(5)
 544 006c 00C0      		rjmp .L41
 545               	.LVL50:
 546               	.L45:
  66:lib/lufa/LUFA/Drivers/USB/Core/AVR8/Template/Template_Endpoint_RW.c **** 			  return ErrorCode;
 547               		.loc 3 66 0
 548 006e 0E94 0000 		call Endpoint_WaitUntilReady
 549               	.LVL51:
 550 0072 8823      		tst r24
 551 0074 01F0      		breq .L43
 552 0076 00C0      		rjmp .L41
 553               	.LVL52:
 554               	.L44:
  71:lib/lufa/LUFA/Drivers/USB/Core/AVR8/Template/Template_Endpoint_RW.c **** 			TEMPLATE_BUFFER_MOVE(DataStream, 1);
 555               		.loc 3 71 0
 556 0078 8881      		ld r24,Y
 557               	.LVL53:
 558               	.LBB290:
 559               	.LBB291:
 554:lib/lufa/LUFA/Drivers/USB/Core/AVR8/../AVR8/../AVR8/Endpoint_AVR8.h **** 			}
 560               		.loc 2 554 0
 561 007a 8093 F100 		sts 241,r24
 562               	.LVL54:
 563               	.LBE291:
 564               	.LBE290:
  72:lib/lufa/LUFA/Drivers/USB/Core/AVR8/Template/Template_Endpoint_RW.c **** 			Length--;
 565               		.loc 3 72 0
 566 007e 2197      		sbiw r28,1
 567               	.LVL55:
  73:lib/lufa/LUFA/Drivers/USB/Core/AVR8/Template/Template_Endpoint_RW.c **** 			BytesInTransfer++;
 568               		.loc 3 73 0
 569 0080 0150      		subi r16,1
 570 0082 1109      		sbc r17,__zero_reg__
 571               	.LVL56:
  74:lib/lufa/LUFA/Drivers/USB/Core/AVR8/Template/Template_Endpoint_RW.c **** 		}
 572               		.loc 3 74 0
 573 0084 FFEF      		ldi r31,-1
 574 0086 CF1A      		sub r12,r31
 575 0088 DF0A      		sbc r13,r31
 576               	.LVL57:
 577 008a 00C0      		rjmp .L43
 578               	.L53:
  78:lib/lufa/LUFA/Drivers/USB/Core/AVR8/Template/Template_Endpoint_RW.c **** }
 579               		.loc 3 78 0
 580 008c 80E0      		ldi r24,0
 581               	.LVL58:
 582               	.L41:
 583               	/* epilogue start */
 584               		.loc 3 79 0
 585 008e DF91      		pop r29
 586 0090 CF91      		pop r28
 587 0092 1F91      		pop r17
 588 0094 0F91      		pop r16
 589               	.LVL59:
 590 0096 FF90      		pop r15
 591 0098 EF90      		pop r14
 592               	.LVL60:
 593 009a DF90      		pop r13
 594 009c CF90      		pop r12
 595 009e 0895      		ret
 596               		.cfi_endproc
 597               	.LFE83:
 599               		.section	.text.Endpoint_Read_Stream_LE,"ax",@progbits
 600               	.global	Endpoint_Read_Stream_LE
 602               	Endpoint_Read_Stream_LE:
 603               	.LFB84:
  36:lib/lufa/LUFA/Drivers/USB/Core/AVR8/Template/Template_Endpoint_RW.c **** 	uint8_t* DataStream      = ((uint8_t*)Buffer + TEMPLATE_BUFFER_OFFSET(Length));
 604               		.loc 3 36 0
 605               		.cfi_startproc
 606               	.LVL61:
 607 0000 CF92      		push r12
 608               	.LCFI28:
 609               		.cfi_def_cfa_offset 3
 610               		.cfi_offset 12, -2
 611 0002 DF92      		push r13
 612               	.LCFI29:
 613               		.cfi_def_cfa_offset 4
 614               		.cfi_offset 13, -3
 615 0004 EF92      		push r14
 616               	.LCFI30:
 617               		.cfi_def_cfa_offset 5
 618               		.cfi_offset 14, -4
 619 0006 FF92      		push r15
 620               	.LCFI31:
 621               		.cfi_def_cfa_offset 6
 622               		.cfi_offset 15, -5
 623 0008 0F93      		push r16
 624               	.LCFI32:
 625               		.cfi_def_cfa_offset 7
 626               		.cfi_offset 16, -6
 627 000a 1F93      		push r17
 628               	.LCFI33:
 629               		.cfi_def_cfa_offset 8
 630               		.cfi_offset 17, -7
 631 000c CF93      		push r28
 632               	.LCFI34:
 633               		.cfi_def_cfa_offset 9
 634               		.cfi_offset 28, -8
 635 000e DF93      		push r29
 636               	.LCFI35:
 637               		.cfi_def_cfa_offset 10
 638               		.cfi_offset 29, -9
 639               	/* prologue: function */
 640               	/* frame size = 0 */
 641               	/* stack size = 8 */
 642               	.L__stack_usage = 8
 643 0010 EC01      		movw r28,r24
 644 0012 8B01      		movw r16,r22
 645 0014 7A01      		movw r14,r20
 646               	.LVL62:
  41:lib/lufa/LUFA/Drivers/USB/Core/AVR8/Template/Template_Endpoint_RW.c **** 	  return ErrorCode;
 647               		.loc 3 41 0
 648 0016 0E94 0000 		call Endpoint_WaitUntilReady
 649               	.LVL63:
 650 001a 8111      		cpse r24,__zero_reg__
 651 001c 00C0      		rjmp .L55
  44:lib/lufa/LUFA/Drivers/USB/Core/AVR8/Template/Template_Endpoint_RW.c **** 	{
 652               		.loc 3 44 0
 653 001e E114      		cp r14,__zero_reg__
 654 0020 F104      		cpc r15,__zero_reg__
 655 0022 01F0      		breq .L56
  46:lib/lufa/LUFA/Drivers/USB/Core/AVR8/Template/Template_Endpoint_RW.c **** 		TEMPLATE_BUFFER_MOVE(DataStream, *BytesProcessed);
 656               		.loc 3 46 0
 657 0024 F701      		movw r30,r14
 658 0026 8081      		ld r24,Z
 659 0028 9181      		ldd r25,Z+1
 660               	.LVL64:
 661 002a 081B      		sub r16,r24
 662 002c 190B      		sbc r17,r25
 663               	.LVL65:
  47:lib/lufa/LUFA/Drivers/USB/Core/AVR8/Template/Template_Endpoint_RW.c **** 	}
 664               		.loc 3 47 0
 665 002e C80F      		add r28,r24
 666 0030 D91F      		adc r29,r25
 667               	.LVL66:
 668               	.L56:
  37:lib/lufa/LUFA/Drivers/USB/Core/AVR8/Template/Template_Endpoint_RW.c **** 	uint16_t BytesInTransfer = 0;
 669               		.loc 3 37 0
 670 0032 C12C      		mov r12,__zero_reg__
 671 0034 D12C      		mov r13,__zero_reg__
 672               	.LVL67:
 673               	.L57:
  50:lib/lufa/LUFA/Drivers/USB/Core/AVR8/Template/Template_Endpoint_RW.c **** 	{
 674               		.loc 3 50 0
 675 0036 0115      		cp r16,__zero_reg__
 676 0038 1105      		cpc r17,__zero_reg__
 677 003a 01F0      		breq .L65
 678               	.LBB292:
 679               	.LBB293:
 360:lib/lufa/LUFA/Drivers/USB/Core/AVR8/../AVR8/../AVR8/Endpoint_AVR8.h **** 			}
 680               		.loc 2 360 0
 681 003c 8091 E800 		lds r24,232
 682               	.LBE293:
 683               	.LBE292:
  52:lib/lufa/LUFA/Drivers/USB/Core/AVR8/Template/Template_Endpoint_RW.c **** 		{
 684               		.loc 3 52 0
 685 0040 85FD      		sbrc r24,5
 686 0042 00C0      		rjmp .L58
 687               	.LBB294:
 688               	.LBB295:
 471:lib/lufa/LUFA/Drivers/USB/Core/AVR8/../AVR8/../AVR8/Endpoint_AVR8.h **** 				#else
 689               		.loc 2 471 0
 690 0044 8091 E800 		lds r24,232
 691 0048 8B77      		andi r24,lo8(123)
 692 004a 8093 E800 		sts 232,r24
 693               	.LBE295:
 694               	.LBE294:
  60:lib/lufa/LUFA/Drivers/USB/Core/AVR8/Template/Template_Endpoint_RW.c **** 			{
 695               		.loc 3 60 0
 696 004e E114      		cp r14,__zero_reg__
 697 0050 F104      		cpc r15,__zero_reg__
 698 0052 01F0      		breq .L59
  62:lib/lufa/LUFA/Drivers/USB/Core/AVR8/Template/Template_Endpoint_RW.c **** 				return ENDPOINT_RWSTREAM_IncompleteTransfer;
 699               		.loc 3 62 0
 700 0054 F701      		movw r30,r14
 701 0056 8081      		ld r24,Z
 702 0058 9181      		ldd r25,Z+1
 703 005a C80E      		add r12,r24
 704 005c D91E      		adc r13,r25
 705               	.LVL68:
 706 005e D182      		std Z+1,r13
 707 0060 C082      		st Z,r12
  63:lib/lufa/LUFA/Drivers/USB/Core/AVR8/Template/Template_Endpoint_RW.c **** 			}
 708               		.loc 3 63 0
 709 0062 85E0      		ldi r24,lo8(5)
 710 0064 00C0      		rjmp .L55
 711               	.LVL69:
 712               	.L59:
  66:lib/lufa/LUFA/Drivers/USB/Core/AVR8/Template/Template_Endpoint_RW.c **** 			  return ErrorCode;
 713               		.loc 3 66 0
 714 0066 0E94 0000 		call Endpoint_WaitUntilReady
 715               	.LVL70:
 716 006a 8823      		tst r24
 717 006c 01F0      		breq .L57
 718 006e 00C0      		rjmp .L55
 719               	.LVL71:
 720               	.L58:
 721               	.LBB296:
 722               	.LBB297:
 542:lib/lufa/LUFA/Drivers/USB/Core/AVR8/../AVR8/../AVR8/Endpoint_AVR8.h **** 			}
 723               		.loc 2 542 0
 724 0070 8091 F100 		lds r24,241
 725               	.LBE297:
 726               	.LBE296:
  71:lib/lufa/LUFA/Drivers/USB/Core/AVR8/Template/Template_Endpoint_RW.c **** 			TEMPLATE_BUFFER_MOVE(DataStream, 1);
 727               		.loc 3 71 0
 728 0074 8993      		st Y+,r24
 729               	.LVL72:
  73:lib/lufa/LUFA/Drivers/USB/Core/AVR8/Template/Template_Endpoint_RW.c **** 			BytesInTransfer++;
 730               		.loc 3 73 0
 731 0076 0150      		subi r16,1
 732 0078 1109      		sbc r17,__zero_reg__
 733               	.LVL73:
  74:lib/lufa/LUFA/Drivers/USB/Core/AVR8/Template/Template_Endpoint_RW.c **** 		}
 734               		.loc 3 74 0
 735 007a FFEF      		ldi r31,-1
 736 007c CF1A      		sub r12,r31
 737 007e DF0A      		sbc r13,r31
 738               	.LVL74:
 739 0080 00C0      		rjmp .L57
 740               	.L65:
  78:lib/lufa/LUFA/Drivers/USB/Core/AVR8/Template/Template_Endpoint_RW.c **** }
 741               		.loc 3 78 0
 742 0082 80E0      		ldi r24,0
 743               	.LVL75:
 744               	.L55:
 745               	/* epilogue start */
 746               		.loc 3 79 0
 747 0084 DF91      		pop r29
 748 0086 CF91      		pop r28
 749               	.LVL76:
 750 0088 1F91      		pop r17
 751 008a 0F91      		pop r16
 752               	.LVL77:
 753 008c FF90      		pop r15
 754 008e EF90      		pop r14
 755               	.LVL78:
 756 0090 DF90      		pop r13
 757 0092 CF90      		pop r12
 758 0094 0895      		ret
 759               		.cfi_endproc
 760               	.LFE84:
 762               		.section	.text.Endpoint_Read_Stream_BE,"ax",@progbits
 763               	.global	Endpoint_Read_Stream_BE
 765               	Endpoint_Read_Stream_BE:
 766               	.LFB85:
  36:lib/lufa/LUFA/Drivers/USB/Core/AVR8/Template/Template_Endpoint_RW.c **** 	uint8_t* DataStream      = ((uint8_t*)Buffer + TEMPLATE_BUFFER_OFFSET(Length));
 767               		.loc 3 36 0
 768               		.cfi_startproc
 769               	.LVL79:
 770 0000 CF92      		push r12
 771               	.LCFI36:
 772               		.cfi_def_cfa_offset 3
 773               		.cfi_offset 12, -2
 774 0002 DF92      		push r13
 775               	.LCFI37:
 776               		.cfi_def_cfa_offset 4
 777               		.cfi_offset 13, -3
 778 0004 EF92      		push r14
 779               	.LCFI38:
 780               		.cfi_def_cfa_offset 5
 781               		.cfi_offset 14, -4
 782 0006 FF92      		push r15
 783               	.LCFI39:
 784               		.cfi_def_cfa_offset 6
 785               		.cfi_offset 15, -5
 786 0008 0F93      		push r16
 787               	.LCFI40:
 788               		.cfi_def_cfa_offset 7
 789               		.cfi_offset 16, -6
 790 000a 1F93      		push r17
 791               	.LCFI41:
 792               		.cfi_def_cfa_offset 8
 793               		.cfi_offset 17, -7
 794 000c CF93      		push r28
 795               	.LCFI42:
 796               		.cfi_def_cfa_offset 9
 797               		.cfi_offset 28, -8
 798 000e DF93      		push r29
 799               	.LCFI43:
 800               		.cfi_def_cfa_offset 10
 801               		.cfi_offset 29, -9
 802               	/* prologue: function */
 803               	/* frame size = 0 */
 804               	/* stack size = 8 */
 805               	.L__stack_usage = 8
 806 0010 EC01      		movw r28,r24
 807 0012 8B01      		movw r16,r22
 808 0014 7A01      		movw r14,r20
 809               	.LVL80:
  41:lib/lufa/LUFA/Drivers/USB/Core/AVR8/Template/Template_Endpoint_RW.c **** 	  return ErrorCode;
 810               		.loc 3 41 0
 811 0016 0E94 0000 		call Endpoint_WaitUntilReady
 812               	.LVL81:
 813 001a 8111      		cpse r24,__zero_reg__
 814 001c 00C0      		rjmp .L67
  37:lib/lufa/LUFA/Drivers/USB/Core/AVR8/Template/Template_Endpoint_RW.c **** 	uint16_t BytesInTransfer = 0;
 815               		.loc 3 37 0
 816 001e C801      		movw r24,r16
 817               	.LVL82:
 818 0020 0197      		sbiw r24,1
 819               	.LVL83:
 820 0022 C80F      		add r28,r24
 821 0024 D91F      		adc r29,r25
 822               	.LVL84:
  44:lib/lufa/LUFA/Drivers/USB/Core/AVR8/Template/Template_Endpoint_RW.c **** 	{
 823               		.loc 3 44 0
 824 0026 E114      		cp r14,__zero_reg__
 825 0028 F104      		cpc r15,__zero_reg__
 826 002a 01F0      		breq .L68
  46:lib/lufa/LUFA/Drivers/USB/Core/AVR8/Template/Template_Endpoint_RW.c **** 		TEMPLATE_BUFFER_MOVE(DataStream, *BytesProcessed);
 827               		.loc 3 46 0
 828 002c F701      		movw r30,r14
 829 002e 8081      		ld r24,Z
 830 0030 9181      		ldd r25,Z+1
 831               	.LVL85:
 832 0032 081B      		sub r16,r24
 833 0034 190B      		sbc r17,r25
 834               	.LVL86:
  47:lib/lufa/LUFA/Drivers/USB/Core/AVR8/Template/Template_Endpoint_RW.c **** 	}
 835               		.loc 3 47 0
 836 0036 C81B      		sub r28,r24
 837 0038 D90B      		sbc r29,r25
 838               	.LVL87:
 839               	.L68:
  36:lib/lufa/LUFA/Drivers/USB/Core/AVR8/Template/Template_Endpoint_RW.c **** 	uint8_t* DataStream      = ((uint8_t*)Buffer + TEMPLATE_BUFFER_OFFSET(Length));
 840               		.loc 3 36 0
 841 003a C12C      		mov r12,__zero_reg__
 842 003c D12C      		mov r13,__zero_reg__
 843               	.LVL88:
 844               	.L69:
  50:lib/lufa/LUFA/Drivers/USB/Core/AVR8/Template/Template_Endpoint_RW.c **** 	{
 845               		.loc 3 50 0
 846 003e 0115      		cp r16,__zero_reg__
 847 0040 1105      		cpc r17,__zero_reg__
 848 0042 01F0      		breq .L79
 849               	.LBB298:
 850               	.LBB299:
 360:lib/lufa/LUFA/Drivers/USB/Core/AVR8/../AVR8/../AVR8/Endpoint_AVR8.h **** 			}
 851               		.loc 2 360 0
 852 0044 8091 E800 		lds r24,232
 853               	.LBE299:
 854               	.LBE298:
  52:lib/lufa/LUFA/Drivers/USB/Core/AVR8/Template/Template_Endpoint_RW.c **** 		{
 855               		.loc 3 52 0
 856 0048 85FD      		sbrc r24,5
 857 004a 00C0      		rjmp .L70
 858               	.LBB300:
 859               	.LBB301:
 471:lib/lufa/LUFA/Drivers/USB/Core/AVR8/../AVR8/../AVR8/Endpoint_AVR8.h **** 				#else
 860               		.loc 2 471 0
 861 004c 8091 E800 		lds r24,232
 862 0050 8B77      		andi r24,lo8(123)
 863 0052 8093 E800 		sts 232,r24
 864               	.LBE301:
 865               	.LBE300:
  60:lib/lufa/LUFA/Drivers/USB/Core/AVR8/Template/Template_Endpoint_RW.c **** 			{
 866               		.loc 3 60 0
 867 0056 E114      		cp r14,__zero_reg__
 868 0058 F104      		cpc r15,__zero_reg__
 869 005a 01F0      		breq .L71
  62:lib/lufa/LUFA/Drivers/USB/Core/AVR8/Template/Template_Endpoint_RW.c **** 				return ENDPOINT_RWSTREAM_IncompleteTransfer;
 870               		.loc 3 62 0
 871 005c F701      		movw r30,r14
 872 005e 8081      		ld r24,Z
 873 0060 9181      		ldd r25,Z+1
 874 0062 C80E      		add r12,r24
 875 0064 D91E      		adc r13,r25
 876               	.LVL89:
 877 0066 D182      		std Z+1,r13
 878 0068 C082      		st Z,r12
  63:lib/lufa/LUFA/Drivers/USB/Core/AVR8/Template/Template_Endpoint_RW.c **** 			}
 879               		.loc 3 63 0
 880 006a 85E0      		ldi r24,lo8(5)
 881 006c 00C0      		rjmp .L67
 882               	.LVL90:
 883               	.L71:
  66:lib/lufa/LUFA/Drivers/USB/Core/AVR8/Template/Template_Endpoint_RW.c **** 			  return ErrorCode;
 884               		.loc 3 66 0
 885 006e 0E94 0000 		call Endpoint_WaitUntilReady
 886               	.LVL91:
 887 0072 8823      		tst r24
 888 0074 01F0      		breq .L69
 889 0076 00C0      		rjmp .L67
 890               	.LVL92:
 891               	.L70:
 892               	.LBB302:
 893               	.LBB303:
 542:lib/lufa/LUFA/Drivers/USB/Core/AVR8/../AVR8/../AVR8/Endpoint_AVR8.h **** 			}
 894               		.loc 2 542 0
 895 0078 8091 F100 		lds r24,241
 896               	.LBE303:
 897               	.LBE302:
  71:lib/lufa/LUFA/Drivers/USB/Core/AVR8/Template/Template_Endpoint_RW.c **** 			TEMPLATE_BUFFER_MOVE(DataStream, 1);
 898               		.loc 3 71 0
 899 007c 8883      		st Y,r24
  72:lib/lufa/LUFA/Drivers/USB/Core/AVR8/Template/Template_Endpoint_RW.c **** 			Length--;
 900               		.loc 3 72 0
 901 007e 2197      		sbiw r28,1
 902               	.LVL93:
  73:lib/lufa/LUFA/Drivers/USB/Core/AVR8/Template/Template_Endpoint_RW.c **** 			BytesInTransfer++;
 903               		.loc 3 73 0
 904 0080 0150      		subi r16,1
 905 0082 1109      		sbc r17,__zero_reg__
 906               	.LVL94:
  74:lib/lufa/LUFA/Drivers/USB/Core/AVR8/Template/Template_Endpoint_RW.c **** 		}
 907               		.loc 3 74 0
 908 0084 FFEF      		ldi r31,-1
 909 0086 CF1A      		sub r12,r31
 910 0088 DF0A      		sbc r13,r31
 911               	.LVL95:
 912 008a 00C0      		rjmp .L69
 913               	.L79:
  78:lib/lufa/LUFA/Drivers/USB/Core/AVR8/Template/Template_Endpoint_RW.c **** }
 914               		.loc 3 78 0
 915 008c 80E0      		ldi r24,0
 916               	.LVL96:
 917               	.L67:
 918               	/* epilogue start */
 919               		.loc 3 79 0
 920 008e DF91      		pop r29
 921 0090 CF91      		pop r28
 922 0092 1F91      		pop r17
 923 0094 0F91      		pop r16
 924               	.LVL97:
 925 0096 FF90      		pop r15
 926 0098 EF90      		pop r14
 927               	.LVL98:
 928 009a DF90      		pop r13
 929 009c CF90      		pop r12
 930 009e 0895      		ret
 931               		.cfi_endproc
 932               	.LFE85:
 934               		.section	.text.Endpoint_Write_PStream_LE,"ax",@progbits
 935               	.global	Endpoint_Write_PStream_LE
 937               	Endpoint_Write_PStream_LE:
 938               	.LFB86:
  36:lib/lufa/LUFA/Drivers/USB/Core/AVR8/Template/Template_Endpoint_RW.c **** 	uint8_t* DataStream      = ((uint8_t*)Buffer + TEMPLATE_BUFFER_OFFSET(Length));
 939               		.loc 3 36 0
 940               		.cfi_startproc
 941               	.LVL99:
 942 0000 CF92      		push r12
 943               	.LCFI44:
 944               		.cfi_def_cfa_offset 3
 945               		.cfi_offset 12, -2
 946 0002 DF92      		push r13
 947               	.LCFI45:
 948               		.cfi_def_cfa_offset 4
 949               		.cfi_offset 13, -3
 950 0004 EF92      		push r14
 951               	.LCFI46:
 952               		.cfi_def_cfa_offset 5
 953               		.cfi_offset 14, -4
 954 0006 FF92      		push r15
 955               	.LCFI47:
 956               		.cfi_def_cfa_offset 6
 957               		.cfi_offset 15, -5
 958 0008 0F93      		push r16
 959               	.LCFI48:
 960               		.cfi_def_cfa_offset 7
 961               		.cfi_offset 16, -6
 962 000a 1F93      		push r17
 963               	.LCFI49:
 964               		.cfi_def_cfa_offset 8
 965               		.cfi_offset 17, -7
 966 000c CF93      		push r28
 967               	.LCFI50:
 968               		.cfi_def_cfa_offset 9
 969               		.cfi_offset 28, -8
 970 000e DF93      		push r29
 971               	.LCFI51:
 972               		.cfi_def_cfa_offset 10
 973               		.cfi_offset 29, -9
 974               	/* prologue: function */
 975               	/* frame size = 0 */
 976               	/* stack size = 8 */
 977               	.L__stack_usage = 8
 978 0010 EC01      		movw r28,r24
 979 0012 8B01      		movw r16,r22
 980 0014 7A01      		movw r14,r20
 981               	.LVL100:
  41:lib/lufa/LUFA/Drivers/USB/Core/AVR8/Template/Template_Endpoint_RW.c **** 	  return ErrorCode;
 982               		.loc 3 41 0
 983 0016 0E94 0000 		call Endpoint_WaitUntilReady
 984               	.LVL101:
 985 001a 8111      		cpse r24,__zero_reg__
 986 001c 00C0      		rjmp .L81
  44:lib/lufa/LUFA/Drivers/USB/Core/AVR8/Template/Template_Endpoint_RW.c **** 	{
 987               		.loc 3 44 0
 988 001e E114      		cp r14,__zero_reg__
 989 0020 F104      		cpc r15,__zero_reg__
 990 0022 01F0      		breq .L82
  46:lib/lufa/LUFA/Drivers/USB/Core/AVR8/Template/Template_Endpoint_RW.c **** 		TEMPLATE_BUFFER_MOVE(DataStream, *BytesProcessed);
 991               		.loc 3 46 0
 992 0024 F701      		movw r30,r14
 993 0026 8081      		ld r24,Z
 994 0028 9181      		ldd r25,Z+1
 995               	.LVL102:
 996 002a 081B      		sub r16,r24
 997 002c 190B      		sbc r17,r25
 998               	.LVL103:
  47:lib/lufa/LUFA/Drivers/USB/Core/AVR8/Template/Template_Endpoint_RW.c **** 	}
 999               		.loc 3 47 0
 1000 002e C80F      		add r28,r24
 1001 0030 D91F      		adc r29,r25
 1002               	.LVL104:
 1003               	.L82:
  37:lib/lufa/LUFA/Drivers/USB/Core/AVR8/Template/Template_Endpoint_RW.c **** 	uint16_t BytesInTransfer = 0;
 1004               		.loc 3 37 0
 1005 0032 C12C      		mov r12,__zero_reg__
 1006 0034 D12C      		mov r13,__zero_reg__
 1007               	.LVL105:
 1008               	.L83:
  50:lib/lufa/LUFA/Drivers/USB/Core/AVR8/Template/Template_Endpoint_RW.c **** 	{
 1009               		.loc 3 50 0
 1010 0036 0115      		cp r16,__zero_reg__
 1011 0038 1105      		cpc r17,__zero_reg__
 1012 003a 01F0      		breq .L91
 1013               	.LBB304:
 1014               	.LBB305:
 360:lib/lufa/LUFA/Drivers/USB/Core/AVR8/../AVR8/../AVR8/Endpoint_AVR8.h **** 			}
 1015               		.loc 2 360 0
 1016 003c 8091 E800 		lds r24,232
 1017               	.LBE305:
 1018               	.LBE304:
  52:lib/lufa/LUFA/Drivers/USB/Core/AVR8/Template/Template_Endpoint_RW.c **** 		{
 1019               		.loc 3 52 0
 1020 0040 85FD      		sbrc r24,5
 1021 0042 00C0      		rjmp .L84
 1022               	.LBB306:
 1023               	.LBB307:
 456:lib/lufa/LUFA/Drivers/USB/Core/AVR8/../AVR8/../AVR8/Endpoint_AVR8.h **** 				#else
 1024               		.loc 2 456 0
 1025 0044 8091 E800 		lds r24,232
 1026 0048 8E77      		andi r24,lo8(126)
 1027 004a 8093 E800 		sts 232,r24
 1028               	.LBE307:
 1029               	.LBE306:
  60:lib/lufa/LUFA/Drivers/USB/Core/AVR8/Template/Template_Endpoint_RW.c **** 			{
 1030               		.loc 3 60 0
 1031 004e E114      		cp r14,__zero_reg__
 1032 0050 F104      		cpc r15,__zero_reg__
 1033 0052 01F0      		breq .L85
  62:lib/lufa/LUFA/Drivers/USB/Core/AVR8/Template/Template_Endpoint_RW.c **** 				return ENDPOINT_RWSTREAM_IncompleteTransfer;
 1034               		.loc 3 62 0
 1035 0054 F701      		movw r30,r14
 1036 0056 8081      		ld r24,Z
 1037 0058 9181      		ldd r25,Z+1
 1038 005a C80E      		add r12,r24
 1039 005c D91E      		adc r13,r25
 1040               	.LVL106:
 1041 005e D182      		std Z+1,r13
 1042 0060 C082      		st Z,r12
  63:lib/lufa/LUFA/Drivers/USB/Core/AVR8/Template/Template_Endpoint_RW.c **** 			}
 1043               		.loc 3 63 0
 1044 0062 85E0      		ldi r24,lo8(5)
 1045 0064 00C0      		rjmp .L81
 1046               	.LVL107:
 1047               	.L85:
  66:lib/lufa/LUFA/Drivers/USB/Core/AVR8/Template/Template_Endpoint_RW.c **** 			  return ErrorCode;
 1048               		.loc 3 66 0
 1049 0066 0E94 0000 		call Endpoint_WaitUntilReady
 1050               	.LVL108:
 1051 006a 8823      		tst r24
 1052 006c 01F0      		breq .L83
 1053 006e 00C0      		rjmp .L81
 1054               	.LVL109:
 1055               	.L84:
 1056               	.LBB308:
  71:lib/lufa/LUFA/Drivers/USB/Core/AVR8/Template/Template_Endpoint_RW.c **** 			TEMPLATE_BUFFER_MOVE(DataStream, 1);
 1057               		.loc 3 71 0
 1058 0070 FE01      		movw r30,r28
 1059               	/* #APP */
 1060               	 ;  71 "lib/lufa/LUFA/Drivers/USB/Core/AVR8/Template/Template_Endpoint_RW.c" 1
 1061 0072 8491      		lpm r24, Z
 1062               		
 1063               	 ;  0 "" 2
 1064               	.LVL110:
 1065               	/* #NOAPP */
 1066               	.LBE308:
 1067               	.LBB309:
 1068               	.LBB310:
 554:lib/lufa/LUFA/Drivers/USB/Core/AVR8/../AVR8/../AVR8/Endpoint_AVR8.h **** 			}
 1069               		.loc 2 554 0
 1070 0074 8093 F100 		sts 241,r24
 1071               	.LVL111:
 1072               	.LBE310:
 1073               	.LBE309:
  72:lib/lufa/LUFA/Drivers/USB/Core/AVR8/Template/Template_Endpoint_RW.c **** 			Length--;
 1074               		.loc 3 72 0
 1075 0078 2196      		adiw r28,1
 1076               	.LVL112:
  73:lib/lufa/LUFA/Drivers/USB/Core/AVR8/Template/Template_Endpoint_RW.c **** 			BytesInTransfer++;
 1077               		.loc 3 73 0
 1078 007a 0150      		subi r16,1
 1079 007c 1109      		sbc r17,__zero_reg__
 1080               	.LVL113:
  74:lib/lufa/LUFA/Drivers/USB/Core/AVR8/Template/Template_Endpoint_RW.c **** 		}
 1081               		.loc 3 74 0
 1082 007e FFEF      		ldi r31,-1
 1083 0080 CF1A      		sub r12,r31
 1084 0082 DF0A      		sbc r13,r31
 1085               	.LVL114:
 1086 0084 00C0      		rjmp .L83
 1087               	.LVL115:
 1088               	.L91:
  78:lib/lufa/LUFA/Drivers/USB/Core/AVR8/Template/Template_Endpoint_RW.c **** }
 1089               		.loc 3 78 0
 1090 0086 80E0      		ldi r24,0
 1091               	.LVL116:
 1092               	.L81:
 1093               	/* epilogue start */
 1094               		.loc 3 79 0
 1095 0088 DF91      		pop r29
 1096 008a CF91      		pop r28
 1097               	.LVL117:
 1098 008c 1F91      		pop r17
 1099 008e 0F91      		pop r16
 1100               	.LVL118:
 1101 0090 FF90      		pop r15
 1102 0092 EF90      		pop r14
 1103               	.LVL119:
 1104 0094 DF90      		pop r13
 1105 0096 CF90      		pop r12
 1106 0098 0895      		ret
 1107               		.cfi_endproc
 1108               	.LFE86:
 1110               		.section	.text.Endpoint_Write_PStream_BE,"ax",@progbits
 1111               	.global	Endpoint_Write_PStream_BE
 1113               	Endpoint_Write_PStream_BE:
 1114               	.LFB87:
  36:lib/lufa/LUFA/Drivers/USB/Core/AVR8/Template/Template_Endpoint_RW.c **** 	uint8_t* DataStream      = ((uint8_t*)Buffer + TEMPLATE_BUFFER_OFFSET(Length));
 1115               		.loc 3 36 0
 1116               		.cfi_startproc
 1117               	.LVL120:
 1118 0000 CF92      		push r12
 1119               	.LCFI52:
 1120               		.cfi_def_cfa_offset 3
 1121               		.cfi_offset 12, -2
 1122 0002 DF92      		push r13
 1123               	.LCFI53:
 1124               		.cfi_def_cfa_offset 4
 1125               		.cfi_offset 13, -3
 1126 0004 EF92      		push r14
 1127               	.LCFI54:
 1128               		.cfi_def_cfa_offset 5
 1129               		.cfi_offset 14, -4
 1130 0006 FF92      		push r15
 1131               	.LCFI55:
 1132               		.cfi_def_cfa_offset 6
 1133               		.cfi_offset 15, -5
 1134 0008 0F93      		push r16
 1135               	.LCFI56:
 1136               		.cfi_def_cfa_offset 7
 1137               		.cfi_offset 16, -6
 1138 000a 1F93      		push r17
 1139               	.LCFI57:
 1140               		.cfi_def_cfa_offset 8
 1141               		.cfi_offset 17, -7
 1142 000c CF93      		push r28
 1143               	.LCFI58:
 1144               		.cfi_def_cfa_offset 9
 1145               		.cfi_offset 28, -8
 1146 000e DF93      		push r29
 1147               	.LCFI59:
 1148               		.cfi_def_cfa_offset 10
 1149               		.cfi_offset 29, -9
 1150               	/* prologue: function */
 1151               	/* frame size = 0 */
 1152               	/* stack size = 8 */
 1153               	.L__stack_usage = 8
 1154 0010 EC01      		movw r28,r24
 1155 0012 8B01      		movw r16,r22
 1156 0014 7A01      		movw r14,r20
 1157               	.LVL121:
  41:lib/lufa/LUFA/Drivers/USB/Core/AVR8/Template/Template_Endpoint_RW.c **** 	  return ErrorCode;
 1158               		.loc 3 41 0
 1159 0016 0E94 0000 		call Endpoint_WaitUntilReady
 1160               	.LVL122:
 1161 001a 8111      		cpse r24,__zero_reg__
 1162 001c 00C0      		rjmp .L93
  37:lib/lufa/LUFA/Drivers/USB/Core/AVR8/Template/Template_Endpoint_RW.c **** 	uint16_t BytesInTransfer = 0;
 1163               		.loc 3 37 0
 1164 001e C801      		movw r24,r16
 1165               	.LVL123:
 1166 0020 0197      		sbiw r24,1
 1167               	.LVL124:
 1168 0022 C80F      		add r28,r24
 1169 0024 D91F      		adc r29,r25
 1170               	.LVL125:
  44:lib/lufa/LUFA/Drivers/USB/Core/AVR8/Template/Template_Endpoint_RW.c **** 	{
 1171               		.loc 3 44 0
 1172 0026 E114      		cp r14,__zero_reg__
 1173 0028 F104      		cpc r15,__zero_reg__
 1174 002a 01F0      		breq .L94
  46:lib/lufa/LUFA/Drivers/USB/Core/AVR8/Template/Template_Endpoint_RW.c **** 		TEMPLATE_BUFFER_MOVE(DataStream, *BytesProcessed);
 1175               		.loc 3 46 0
 1176 002c F701      		movw r30,r14
 1177 002e 8081      		ld r24,Z
 1178 0030 9181      		ldd r25,Z+1
 1179               	.LVL126:
 1180 0032 081B      		sub r16,r24
 1181 0034 190B      		sbc r17,r25
 1182               	.LVL127:
  47:lib/lufa/LUFA/Drivers/USB/Core/AVR8/Template/Template_Endpoint_RW.c **** 	}
 1183               		.loc 3 47 0
 1184 0036 C81B      		sub r28,r24
 1185 0038 D90B      		sbc r29,r25
 1186               	.LVL128:
 1187               	.L94:
  36:lib/lufa/LUFA/Drivers/USB/Core/AVR8/Template/Template_Endpoint_RW.c **** 	uint8_t* DataStream      = ((uint8_t*)Buffer + TEMPLATE_BUFFER_OFFSET(Length));
 1188               		.loc 3 36 0
 1189 003a C12C      		mov r12,__zero_reg__
 1190 003c D12C      		mov r13,__zero_reg__
 1191               	.LVL129:
 1192               	.L95:
  50:lib/lufa/LUFA/Drivers/USB/Core/AVR8/Template/Template_Endpoint_RW.c **** 	{
 1193               		.loc 3 50 0
 1194 003e 0115      		cp r16,__zero_reg__
 1195 0040 1105      		cpc r17,__zero_reg__
 1196 0042 01F0      		breq .L105
 1197               	.LBB311:
 1198               	.LBB312:
 360:lib/lufa/LUFA/Drivers/USB/Core/AVR8/../AVR8/../AVR8/Endpoint_AVR8.h **** 			}
 1199               		.loc 2 360 0
 1200 0044 8091 E800 		lds r24,232
 1201               	.LBE312:
 1202               	.LBE311:
  52:lib/lufa/LUFA/Drivers/USB/Core/AVR8/Template/Template_Endpoint_RW.c **** 		{
 1203               		.loc 3 52 0
 1204 0048 85FD      		sbrc r24,5
 1205 004a 00C0      		rjmp .L96
 1206               	.LBB313:
 1207               	.LBB314:
 456:lib/lufa/LUFA/Drivers/USB/Core/AVR8/../AVR8/../AVR8/Endpoint_AVR8.h **** 				#else
 1208               		.loc 2 456 0
 1209 004c 8091 E800 		lds r24,232
 1210 0050 8E77      		andi r24,lo8(126)
 1211 0052 8093 E800 		sts 232,r24
 1212               	.LBE314:
 1213               	.LBE313:
  60:lib/lufa/LUFA/Drivers/USB/Core/AVR8/Template/Template_Endpoint_RW.c **** 			{
 1214               		.loc 3 60 0
 1215 0056 E114      		cp r14,__zero_reg__
 1216 0058 F104      		cpc r15,__zero_reg__
 1217 005a 01F0      		breq .L97
  62:lib/lufa/LUFA/Drivers/USB/Core/AVR8/Template/Template_Endpoint_RW.c **** 				return ENDPOINT_RWSTREAM_IncompleteTransfer;
 1218               		.loc 3 62 0
 1219 005c F701      		movw r30,r14
 1220 005e 8081      		ld r24,Z
 1221 0060 9181      		ldd r25,Z+1
 1222 0062 C80E      		add r12,r24
 1223 0064 D91E      		adc r13,r25
 1224               	.LVL130:
 1225 0066 D182      		std Z+1,r13
 1226 0068 C082      		st Z,r12
  63:lib/lufa/LUFA/Drivers/USB/Core/AVR8/Template/Template_Endpoint_RW.c **** 			}
 1227               		.loc 3 63 0
 1228 006a 85E0      		ldi r24,lo8(5)
 1229 006c 00C0      		rjmp .L93
 1230               	.LVL131:
 1231               	.L97:
  66:lib/lufa/LUFA/Drivers/USB/Core/AVR8/Template/Template_Endpoint_RW.c **** 			  return ErrorCode;
 1232               		.loc 3 66 0
 1233 006e 0E94 0000 		call Endpoint_WaitUntilReady
 1234               	.LVL132:
 1235 0072 8823      		tst r24
 1236 0074 01F0      		breq .L95
 1237 0076 00C0      		rjmp .L93
 1238               	.LVL133:
 1239               	.L96:
 1240               	.LBB315:
  71:lib/lufa/LUFA/Drivers/USB/Core/AVR8/Template/Template_Endpoint_RW.c **** 			TEMPLATE_BUFFER_MOVE(DataStream, 1);
 1241               		.loc 3 71 0
 1242 0078 FE01      		movw r30,r28
 1243               	/* #APP */
 1244               	 ;  71 "lib/lufa/LUFA/Drivers/USB/Core/AVR8/Template/Template_Endpoint_RW.c" 1
 1245 007a 8491      		lpm r24, Z
 1246               		
 1247               	 ;  0 "" 2
 1248               	.LVL134:
 1249               	/* #NOAPP */
 1250               	.LBE315:
 1251               	.LBB316:
 1252               	.LBB317:
 554:lib/lufa/LUFA/Drivers/USB/Core/AVR8/../AVR8/../AVR8/Endpoint_AVR8.h **** 			}
 1253               		.loc 2 554 0
 1254 007c 8093 F100 		sts 241,r24
 1255               	.LVL135:
 1256               	.LBE317:
 1257               	.LBE316:
  72:lib/lufa/LUFA/Drivers/USB/Core/AVR8/Template/Template_Endpoint_RW.c **** 			Length--;
 1258               		.loc 3 72 0
 1259 0080 2197      		sbiw r28,1
 1260               	.LVL136:
  73:lib/lufa/LUFA/Drivers/USB/Core/AVR8/Template/Template_Endpoint_RW.c **** 			BytesInTransfer++;
 1261               		.loc 3 73 0
 1262 0082 0150      		subi r16,1
 1263 0084 1109      		sbc r17,__zero_reg__
 1264               	.LVL137:
  74:lib/lufa/LUFA/Drivers/USB/Core/AVR8/Template/Template_Endpoint_RW.c **** 		}
 1265               		.loc 3 74 0
 1266 0086 FFEF      		ldi r31,-1
 1267 0088 CF1A      		sub r12,r31
 1268 008a DF0A      		sbc r13,r31
 1269               	.LVL138:
 1270 008c 00C0      		rjmp .L95
 1271               	.LVL139:
 1272               	.L105:
  78:lib/lufa/LUFA/Drivers/USB/Core/AVR8/Template/Template_Endpoint_RW.c **** }
 1273               		.loc 3 78 0
 1274 008e 80E0      		ldi r24,0
 1275               	.LVL140:
 1276               	.L93:
 1277               	/* epilogue start */
 1278               		.loc 3 79 0
 1279 0090 DF91      		pop r29
 1280 0092 CF91      		pop r28
 1281 0094 1F91      		pop r17
 1282 0096 0F91      		pop r16
 1283               	.LVL141:
 1284 0098 FF90      		pop r15
 1285 009a EF90      		pop r14
 1286               	.LVL142:
 1287 009c DF90      		pop r13
 1288 009e CF90      		pop r12
 1289 00a0 0895      		ret
 1290               		.cfi_endproc
 1291               	.LFE87:
 1293               		.section	.text.Endpoint_Write_EStream_LE,"ax",@progbits
 1294               	.global	Endpoint_Write_EStream_LE
 1296               	Endpoint_Write_EStream_LE:
 1297               	.LFB88:
  36:lib/lufa/LUFA/Drivers/USB/Core/AVR8/Template/Template_Endpoint_RW.c **** 	uint8_t* DataStream      = ((uint8_t*)Buffer + TEMPLATE_BUFFER_OFFSET(Length));
 1298               		.loc 3 36 0
 1299               		.cfi_startproc
 1300               	.LVL143:
 1301 0000 CF92      		push r12
 1302               	.LCFI60:
 1303               		.cfi_def_cfa_offset 3
 1304               		.cfi_offset 12, -2
 1305 0002 DF92      		push r13
 1306               	.LCFI61:
 1307               		.cfi_def_cfa_offset 4
 1308               		.cfi_offset 13, -3
 1309 0004 EF92      		push r14
 1310               	.LCFI62:
 1311               		.cfi_def_cfa_offset 5
 1312               		.cfi_offset 14, -4
 1313 0006 FF92      		push r15
 1314               	.LCFI63:
 1315               		.cfi_def_cfa_offset 6
 1316               		.cfi_offset 15, -5
 1317 0008 0F93      		push r16
 1318               	.LCFI64:
 1319               		.cfi_def_cfa_offset 7
 1320               		.cfi_offset 16, -6
 1321 000a 1F93      		push r17
 1322               	.LCFI65:
 1323               		.cfi_def_cfa_offset 8
 1324               		.cfi_offset 17, -7
 1325 000c CF93      		push r28
 1326               	.LCFI66:
 1327               		.cfi_def_cfa_offset 9
 1328               		.cfi_offset 28, -8
 1329 000e DF93      		push r29
 1330               	.LCFI67:
 1331               		.cfi_def_cfa_offset 10
 1332               		.cfi_offset 29, -9
 1333               	/* prologue: function */
 1334               	/* frame size = 0 */
 1335               	/* stack size = 8 */
 1336               	.L__stack_usage = 8
 1337 0010 EC01      		movw r28,r24
 1338 0012 8B01      		movw r16,r22
 1339 0014 7A01      		movw r14,r20
 1340               	.LVL144:
  41:lib/lufa/LUFA/Drivers/USB/Core/AVR8/Template/Template_Endpoint_RW.c **** 	  return ErrorCode;
 1341               		.loc 3 41 0
 1342 0016 0E94 0000 		call Endpoint_WaitUntilReady
 1343               	.LVL145:
 1344 001a 8111      		cpse r24,__zero_reg__
 1345 001c 00C0      		rjmp .L107
  44:lib/lufa/LUFA/Drivers/USB/Core/AVR8/Template/Template_Endpoint_RW.c **** 	{
 1346               		.loc 3 44 0
 1347 001e E114      		cp r14,__zero_reg__
 1348 0020 F104      		cpc r15,__zero_reg__
 1349 0022 01F0      		breq .L108
  46:lib/lufa/LUFA/Drivers/USB/Core/AVR8/Template/Template_Endpoint_RW.c **** 		TEMPLATE_BUFFER_MOVE(DataStream, *BytesProcessed);
 1350               		.loc 3 46 0
 1351 0024 F701      		movw r30,r14
 1352 0026 8081      		ld r24,Z
 1353 0028 9181      		ldd r25,Z+1
 1354               	.LVL146:
 1355 002a 081B      		sub r16,r24
 1356 002c 190B      		sbc r17,r25
 1357               	.LVL147:
  47:lib/lufa/LUFA/Drivers/USB/Core/AVR8/Template/Template_Endpoint_RW.c **** 	}
 1358               		.loc 3 47 0
 1359 002e C80F      		add r28,r24
 1360 0030 D91F      		adc r29,r25
 1361               	.LVL148:
 1362               	.L108:
  37:lib/lufa/LUFA/Drivers/USB/Core/AVR8/Template/Template_Endpoint_RW.c **** 	uint16_t BytesInTransfer = 0;
 1363               		.loc 3 37 0
 1364 0032 C12C      		mov r12,__zero_reg__
 1365 0034 D12C      		mov r13,__zero_reg__
 1366               	.LVL149:
 1367               	.L109:
  50:lib/lufa/LUFA/Drivers/USB/Core/AVR8/Template/Template_Endpoint_RW.c **** 	{
 1368               		.loc 3 50 0
 1369 0036 0115      		cp r16,__zero_reg__
 1370 0038 1105      		cpc r17,__zero_reg__
 1371 003a 01F0      		breq .L117
 1372               	.LBB318:
 1373               	.LBB319:
 360:lib/lufa/LUFA/Drivers/USB/Core/AVR8/../AVR8/../AVR8/Endpoint_AVR8.h **** 			}
 1374               		.loc 2 360 0
 1375 003c 8091 E800 		lds r24,232
 1376               	.LBE319:
 1377               	.LBE318:
  52:lib/lufa/LUFA/Drivers/USB/Core/AVR8/Template/Template_Endpoint_RW.c **** 		{
 1378               		.loc 3 52 0
 1379 0040 85FD      		sbrc r24,5
 1380 0042 00C0      		rjmp .L110
 1381               	.LBB320:
 1382               	.LBB321:
 456:lib/lufa/LUFA/Drivers/USB/Core/AVR8/../AVR8/../AVR8/Endpoint_AVR8.h **** 				#else
 1383               		.loc 2 456 0
 1384 0044 8091 E800 		lds r24,232
 1385 0048 8E77      		andi r24,lo8(126)
 1386 004a 8093 E800 		sts 232,r24
 1387               	.LBE321:
 1388               	.LBE320:
  60:lib/lufa/LUFA/Drivers/USB/Core/AVR8/Template/Template_Endpoint_RW.c **** 			{
 1389               		.loc 3 60 0
 1390 004e E114      		cp r14,__zero_reg__
 1391 0050 F104      		cpc r15,__zero_reg__
 1392 0052 01F0      		breq .L111
  62:lib/lufa/LUFA/Drivers/USB/Core/AVR8/Template/Template_Endpoint_RW.c **** 				return ENDPOINT_RWSTREAM_IncompleteTransfer;
 1393               		.loc 3 62 0
 1394 0054 F701      		movw r30,r14
 1395 0056 8081      		ld r24,Z
 1396 0058 9181      		ldd r25,Z+1
 1397 005a C80E      		add r12,r24
 1398 005c D91E      		adc r13,r25
 1399               	.LVL150:
 1400 005e D182      		std Z+1,r13
 1401 0060 C082      		st Z,r12
  63:lib/lufa/LUFA/Drivers/USB/Core/AVR8/Template/Template_Endpoint_RW.c **** 			}
 1402               		.loc 3 63 0
 1403 0062 85E0      		ldi r24,lo8(5)
 1404 0064 00C0      		rjmp .L107
 1405               	.LVL151:
 1406               	.L111:
  66:lib/lufa/LUFA/Drivers/USB/Core/AVR8/Template/Template_Endpoint_RW.c **** 			  return ErrorCode;
 1407               		.loc 3 66 0
 1408 0066 0E94 0000 		call Endpoint_WaitUntilReady
 1409               	.LVL152:
 1410 006a 8823      		tst r24
 1411 006c 01F0      		breq .L109
 1412 006e 00C0      		rjmp .L107
 1413               	.LVL153:
 1414               	.L110:
  71:lib/lufa/LUFA/Drivers/USB/Core/AVR8/Template/Template_Endpoint_RW.c **** 			TEMPLATE_BUFFER_MOVE(DataStream, 1);
 1415               		.loc 3 71 0
 1416 0070 CE01      		movw r24,r28
 1417 0072 0E94 0000 		call eeprom_read_byte
 1418               	.LVL154:
 1419               	.LBB322:
 1420               	.LBB323:
 554:lib/lufa/LUFA/Drivers/USB/Core/AVR8/../AVR8/../AVR8/Endpoint_AVR8.h **** 			}
 1421               		.loc 2 554 0
 1422 0076 8093 F100 		sts 241,r24
 1423               	.LVL155:
 1424               	.LBE323:
 1425               	.LBE322:
  72:lib/lufa/LUFA/Drivers/USB/Core/AVR8/Template/Template_Endpoint_RW.c **** 			Length--;
 1426               		.loc 3 72 0
 1427 007a 2196      		adiw r28,1
 1428               	.LVL156:
  73:lib/lufa/LUFA/Drivers/USB/Core/AVR8/Template/Template_Endpoint_RW.c **** 			BytesInTransfer++;
 1429               		.loc 3 73 0
 1430 007c 0150      		subi r16,1
 1431 007e 1109      		sbc r17,__zero_reg__
 1432               	.LVL157:
  74:lib/lufa/LUFA/Drivers/USB/Core/AVR8/Template/Template_Endpoint_RW.c **** 		}
 1433               		.loc 3 74 0
 1434 0080 FFEF      		ldi r31,-1
 1435 0082 CF1A      		sub r12,r31
 1436 0084 DF0A      		sbc r13,r31
 1437               	.LVL158:
 1438 0086 00C0      		rjmp .L109
 1439               	.L117:
  78:lib/lufa/LUFA/Drivers/USB/Core/AVR8/Template/Template_Endpoint_RW.c **** }
 1440               		.loc 3 78 0
 1441 0088 80E0      		ldi r24,0
 1442               	.LVL159:
 1443               	.L107:
 1444               	/* epilogue start */
 1445               		.loc 3 79 0
 1446 008a DF91      		pop r29
 1447 008c CF91      		pop r28
 1448               	.LVL160:
 1449 008e 1F91      		pop r17
 1450 0090 0F91      		pop r16
 1451               	.LVL161:
 1452 0092 FF90      		pop r15
 1453 0094 EF90      		pop r14
 1454               	.LVL162:
 1455 0096 DF90      		pop r13
 1456 0098 CF90      		pop r12
 1457 009a 0895      		ret
 1458               		.cfi_endproc
 1459               	.LFE88:
 1461               		.section	.text.Endpoint_Write_EStream_BE,"ax",@progbits
 1462               	.global	Endpoint_Write_EStream_BE
 1464               	Endpoint_Write_EStream_BE:
 1465               	.LFB89:
  36:lib/lufa/LUFA/Drivers/USB/Core/AVR8/Template/Template_Endpoint_RW.c **** 	uint8_t* DataStream      = ((uint8_t*)Buffer + TEMPLATE_BUFFER_OFFSET(Length));
 1466               		.loc 3 36 0
 1467               		.cfi_startproc
 1468               	.LVL163:
 1469 0000 CF92      		push r12
 1470               	.LCFI68:
 1471               		.cfi_def_cfa_offset 3
 1472               		.cfi_offset 12, -2
 1473 0002 DF92      		push r13
 1474               	.LCFI69:
 1475               		.cfi_def_cfa_offset 4
 1476               		.cfi_offset 13, -3
 1477 0004 EF92      		push r14
 1478               	.LCFI70:
 1479               		.cfi_def_cfa_offset 5
 1480               		.cfi_offset 14, -4
 1481 0006 FF92      		push r15
 1482               	.LCFI71:
 1483               		.cfi_def_cfa_offset 6
 1484               		.cfi_offset 15, -5
 1485 0008 0F93      		push r16
 1486               	.LCFI72:
 1487               		.cfi_def_cfa_offset 7
 1488               		.cfi_offset 16, -6
 1489 000a 1F93      		push r17
 1490               	.LCFI73:
 1491               		.cfi_def_cfa_offset 8
 1492               		.cfi_offset 17, -7
 1493 000c CF93      		push r28
 1494               	.LCFI74:
 1495               		.cfi_def_cfa_offset 9
 1496               		.cfi_offset 28, -8
 1497 000e DF93      		push r29
 1498               	.LCFI75:
 1499               		.cfi_def_cfa_offset 10
 1500               		.cfi_offset 29, -9
 1501               	/* prologue: function */
 1502               	/* frame size = 0 */
 1503               	/* stack size = 8 */
 1504               	.L__stack_usage = 8
 1505 0010 EC01      		movw r28,r24
 1506 0012 8B01      		movw r16,r22
 1507 0014 7A01      		movw r14,r20
 1508               	.LVL164:
  41:lib/lufa/LUFA/Drivers/USB/Core/AVR8/Template/Template_Endpoint_RW.c **** 	  return ErrorCode;
 1509               		.loc 3 41 0
 1510 0016 0E94 0000 		call Endpoint_WaitUntilReady
 1511               	.LVL165:
 1512 001a 8111      		cpse r24,__zero_reg__
 1513 001c 00C0      		rjmp .L119
  37:lib/lufa/LUFA/Drivers/USB/Core/AVR8/Template/Template_Endpoint_RW.c **** 	uint16_t BytesInTransfer = 0;
 1514               		.loc 3 37 0
 1515 001e C801      		movw r24,r16
 1516               	.LVL166:
 1517 0020 0197      		sbiw r24,1
 1518               	.LVL167:
 1519 0022 C80F      		add r28,r24
 1520 0024 D91F      		adc r29,r25
 1521               	.LVL168:
  44:lib/lufa/LUFA/Drivers/USB/Core/AVR8/Template/Template_Endpoint_RW.c **** 	{
 1522               		.loc 3 44 0
 1523 0026 E114      		cp r14,__zero_reg__
 1524 0028 F104      		cpc r15,__zero_reg__
 1525 002a 01F0      		breq .L120
  46:lib/lufa/LUFA/Drivers/USB/Core/AVR8/Template/Template_Endpoint_RW.c **** 		TEMPLATE_BUFFER_MOVE(DataStream, *BytesProcessed);
 1526               		.loc 3 46 0
 1527 002c F701      		movw r30,r14
 1528 002e 8081      		ld r24,Z
 1529 0030 9181      		ldd r25,Z+1
 1530               	.LVL169:
 1531 0032 081B      		sub r16,r24
 1532 0034 190B      		sbc r17,r25
 1533               	.LVL170:
  47:lib/lufa/LUFA/Drivers/USB/Core/AVR8/Template/Template_Endpoint_RW.c **** 	}
 1534               		.loc 3 47 0
 1535 0036 C81B      		sub r28,r24
 1536 0038 D90B      		sbc r29,r25
 1537               	.LVL171:
 1538               	.L120:
  36:lib/lufa/LUFA/Drivers/USB/Core/AVR8/Template/Template_Endpoint_RW.c **** 	uint8_t* DataStream      = ((uint8_t*)Buffer + TEMPLATE_BUFFER_OFFSET(Length));
 1539               		.loc 3 36 0
 1540 003a C12C      		mov r12,__zero_reg__
 1541 003c D12C      		mov r13,__zero_reg__
 1542               	.LVL172:
 1543               	.L121:
  50:lib/lufa/LUFA/Drivers/USB/Core/AVR8/Template/Template_Endpoint_RW.c **** 	{
 1544               		.loc 3 50 0
 1545 003e 0115      		cp r16,__zero_reg__
 1546 0040 1105      		cpc r17,__zero_reg__
 1547 0042 01F0      		breq .L131
 1548               	.LBB324:
 1549               	.LBB325:
 360:lib/lufa/LUFA/Drivers/USB/Core/AVR8/../AVR8/../AVR8/Endpoint_AVR8.h **** 			}
 1550               		.loc 2 360 0
 1551 0044 8091 E800 		lds r24,232
 1552               	.LBE325:
 1553               	.LBE324:
  52:lib/lufa/LUFA/Drivers/USB/Core/AVR8/Template/Template_Endpoint_RW.c **** 		{
 1554               		.loc 3 52 0
 1555 0048 85FD      		sbrc r24,5
 1556 004a 00C0      		rjmp .L122
 1557               	.LBB326:
 1558               	.LBB327:
 456:lib/lufa/LUFA/Drivers/USB/Core/AVR8/../AVR8/../AVR8/Endpoint_AVR8.h **** 				#else
 1559               		.loc 2 456 0
 1560 004c 8091 E800 		lds r24,232
 1561 0050 8E77      		andi r24,lo8(126)
 1562 0052 8093 E800 		sts 232,r24
 1563               	.LBE327:
 1564               	.LBE326:
  60:lib/lufa/LUFA/Drivers/USB/Core/AVR8/Template/Template_Endpoint_RW.c **** 			{
 1565               		.loc 3 60 0
 1566 0056 E114      		cp r14,__zero_reg__
 1567 0058 F104      		cpc r15,__zero_reg__
 1568 005a 01F0      		breq .L123
  62:lib/lufa/LUFA/Drivers/USB/Core/AVR8/Template/Template_Endpoint_RW.c **** 				return ENDPOINT_RWSTREAM_IncompleteTransfer;
 1569               		.loc 3 62 0
 1570 005c F701      		movw r30,r14
 1571 005e 8081      		ld r24,Z
 1572 0060 9181      		ldd r25,Z+1
 1573 0062 C80E      		add r12,r24
 1574 0064 D91E      		adc r13,r25
 1575               	.LVL173:
 1576 0066 D182      		std Z+1,r13
 1577 0068 C082      		st Z,r12
  63:lib/lufa/LUFA/Drivers/USB/Core/AVR8/Template/Template_Endpoint_RW.c **** 			}
 1578               		.loc 3 63 0
 1579 006a 85E0      		ldi r24,lo8(5)
 1580 006c 00C0      		rjmp .L119
 1581               	.LVL174:
 1582               	.L123:
  66:lib/lufa/LUFA/Drivers/USB/Core/AVR8/Template/Template_Endpoint_RW.c **** 			  return ErrorCode;
 1583               		.loc 3 66 0
 1584 006e 0E94 0000 		call Endpoint_WaitUntilReady
 1585               	.LVL175:
 1586 0072 8823      		tst r24
 1587 0074 01F0      		breq .L121
 1588 0076 00C0      		rjmp .L119
 1589               	.LVL176:
 1590               	.L122:
  71:lib/lufa/LUFA/Drivers/USB/Core/AVR8/Template/Template_Endpoint_RW.c **** 			TEMPLATE_BUFFER_MOVE(DataStream, 1);
 1591               		.loc 3 71 0
 1592 0078 CE01      		movw r24,r28
 1593 007a 0E94 0000 		call eeprom_read_byte
 1594               	.LVL177:
 1595               	.LBB328:
 1596               	.LBB329:
 554:lib/lufa/LUFA/Drivers/USB/Core/AVR8/../AVR8/../AVR8/Endpoint_AVR8.h **** 			}
 1597               		.loc 2 554 0
 1598 007e 8093 F100 		sts 241,r24
 1599               	.LVL178:
 1600               	.LBE329:
 1601               	.LBE328:
  72:lib/lufa/LUFA/Drivers/USB/Core/AVR8/Template/Template_Endpoint_RW.c **** 			Length--;
 1602               		.loc 3 72 0
 1603 0082 2197      		sbiw r28,1
 1604               	.LVL179:
  73:lib/lufa/LUFA/Drivers/USB/Core/AVR8/Template/Template_Endpoint_RW.c **** 			BytesInTransfer++;
 1605               		.loc 3 73 0
 1606 0084 0150      		subi r16,1
 1607 0086 1109      		sbc r17,__zero_reg__
 1608               	.LVL180:
  74:lib/lufa/LUFA/Drivers/USB/Core/AVR8/Template/Template_Endpoint_RW.c **** 		}
 1609               		.loc 3 74 0
 1610 0088 FFEF      		ldi r31,-1
 1611 008a CF1A      		sub r12,r31
 1612 008c DF0A      		sbc r13,r31
 1613               	.LVL181:
 1614 008e 00C0      		rjmp .L121
 1615               	.L131:
  78:lib/lufa/LUFA/Drivers/USB/Core/AVR8/Template/Template_Endpoint_RW.c **** }
 1616               		.loc 3 78 0
 1617 0090 80E0      		ldi r24,0
 1618               	.LVL182:
 1619               	.L119:
 1620               	/* epilogue start */
 1621               		.loc 3 79 0
 1622 0092 DF91      		pop r29
 1623 0094 CF91      		pop r28
 1624 0096 1F91      		pop r17
 1625 0098 0F91      		pop r16
 1626               	.LVL183:
 1627 009a FF90      		pop r15
 1628 009c EF90      		pop r14
 1629               	.LVL184:
 1630 009e DF90      		pop r13
 1631 00a0 CF90      		pop r12
 1632 00a2 0895      		ret
 1633               		.cfi_endproc
 1634               	.LFE89:
 1636               		.section	.text.Endpoint_Read_EStream_LE,"ax",@progbits
 1637               	.global	Endpoint_Read_EStream_LE
 1639               	Endpoint_Read_EStream_LE:
 1640               	.LFB90:
  36:lib/lufa/LUFA/Drivers/USB/Core/AVR8/Template/Template_Endpoint_RW.c **** 	uint8_t* DataStream      = ((uint8_t*)Buffer + TEMPLATE_BUFFER_OFFSET(Length));
 1641               		.loc 3 36 0
 1642               		.cfi_startproc
 1643               	.LVL185:
 1644 0000 CF92      		push r12
 1645               	.LCFI76:
 1646               		.cfi_def_cfa_offset 3
 1647               		.cfi_offset 12, -2
 1648 0002 DF92      		push r13
 1649               	.LCFI77:
 1650               		.cfi_def_cfa_offset 4
 1651               		.cfi_offset 13, -3
 1652 0004 EF92      		push r14
 1653               	.LCFI78:
 1654               		.cfi_def_cfa_offset 5
 1655               		.cfi_offset 14, -4
 1656 0006 FF92      		push r15
 1657               	.LCFI79:
 1658               		.cfi_def_cfa_offset 6
 1659               		.cfi_offset 15, -5
 1660 0008 0F93      		push r16
 1661               	.LCFI80:
 1662               		.cfi_def_cfa_offset 7
 1663               		.cfi_offset 16, -6
 1664 000a 1F93      		push r17
 1665               	.LCFI81:
 1666               		.cfi_def_cfa_offset 8
 1667               		.cfi_offset 17, -7
 1668 000c CF93      		push r28
 1669               	.LCFI82:
 1670               		.cfi_def_cfa_offset 9
 1671               		.cfi_offset 28, -8
 1672 000e DF93      		push r29
 1673               	.LCFI83:
 1674               		.cfi_def_cfa_offset 10
 1675               		.cfi_offset 29, -9
 1676               	/* prologue: function */
 1677               	/* frame size = 0 */
 1678               	/* stack size = 8 */
 1679               	.L__stack_usage = 8
 1680 0010 EC01      		movw r28,r24
 1681 0012 8B01      		movw r16,r22
 1682 0014 7A01      		movw r14,r20
 1683               	.LVL186:
  41:lib/lufa/LUFA/Drivers/USB/Core/AVR8/Template/Template_Endpoint_RW.c **** 	  return ErrorCode;
 1684               		.loc 3 41 0
 1685 0016 0E94 0000 		call Endpoint_WaitUntilReady
 1686               	.LVL187:
 1687 001a 8111      		cpse r24,__zero_reg__
 1688 001c 00C0      		rjmp .L133
  44:lib/lufa/LUFA/Drivers/USB/Core/AVR8/Template/Template_Endpoint_RW.c **** 	{
 1689               		.loc 3 44 0
 1690 001e E114      		cp r14,__zero_reg__
 1691 0020 F104      		cpc r15,__zero_reg__
 1692 0022 01F0      		breq .L134
  46:lib/lufa/LUFA/Drivers/USB/Core/AVR8/Template/Template_Endpoint_RW.c **** 		TEMPLATE_BUFFER_MOVE(DataStream, *BytesProcessed);
 1693               		.loc 3 46 0
 1694 0024 F701      		movw r30,r14
 1695 0026 8081      		ld r24,Z
 1696 0028 9181      		ldd r25,Z+1
 1697               	.LVL188:
 1698 002a 081B      		sub r16,r24
 1699 002c 190B      		sbc r17,r25
 1700               	.LVL189:
  47:lib/lufa/LUFA/Drivers/USB/Core/AVR8/Template/Template_Endpoint_RW.c **** 	}
 1701               		.loc 3 47 0
 1702 002e C80F      		add r28,r24
 1703 0030 D91F      		adc r29,r25
 1704               	.LVL190:
 1705               	.L134:
  37:lib/lufa/LUFA/Drivers/USB/Core/AVR8/Template/Template_Endpoint_RW.c **** 	uint16_t BytesInTransfer = 0;
 1706               		.loc 3 37 0
 1707 0032 C12C      		mov r12,__zero_reg__
 1708 0034 D12C      		mov r13,__zero_reg__
 1709               	.LVL191:
 1710               	.L135:
  50:lib/lufa/LUFA/Drivers/USB/Core/AVR8/Template/Template_Endpoint_RW.c **** 	{
 1711               		.loc 3 50 0
 1712 0036 0115      		cp r16,__zero_reg__
 1713 0038 1105      		cpc r17,__zero_reg__
 1714 003a 01F0      		breq .L143
 1715               	.LBB330:
 1716               	.LBB331:
 360:lib/lufa/LUFA/Drivers/USB/Core/AVR8/../AVR8/../AVR8/Endpoint_AVR8.h **** 			}
 1717               		.loc 2 360 0
 1718 003c 8091 E800 		lds r24,232
 1719               	.LBE331:
 1720               	.LBE330:
  52:lib/lufa/LUFA/Drivers/USB/Core/AVR8/Template/Template_Endpoint_RW.c **** 		{
 1721               		.loc 3 52 0
 1722 0040 85FD      		sbrc r24,5
 1723 0042 00C0      		rjmp .L136
 1724               	.LBB332:
 1725               	.LBB333:
 471:lib/lufa/LUFA/Drivers/USB/Core/AVR8/../AVR8/../AVR8/Endpoint_AVR8.h **** 				#else
 1726               		.loc 2 471 0
 1727 0044 8091 E800 		lds r24,232
 1728 0048 8B77      		andi r24,lo8(123)
 1729 004a 8093 E800 		sts 232,r24
 1730               	.LBE333:
 1731               	.LBE332:
  60:lib/lufa/LUFA/Drivers/USB/Core/AVR8/Template/Template_Endpoint_RW.c **** 			{
 1732               		.loc 3 60 0
 1733 004e E114      		cp r14,__zero_reg__
 1734 0050 F104      		cpc r15,__zero_reg__
 1735 0052 01F0      		breq .L137
  62:lib/lufa/LUFA/Drivers/USB/Core/AVR8/Template/Template_Endpoint_RW.c **** 				return ENDPOINT_RWSTREAM_IncompleteTransfer;
 1736               		.loc 3 62 0
 1737 0054 F701      		movw r30,r14
 1738 0056 8081      		ld r24,Z
 1739 0058 9181      		ldd r25,Z+1
 1740 005a C80E      		add r12,r24
 1741 005c D91E      		adc r13,r25
 1742               	.LVL192:
 1743 005e D182      		std Z+1,r13
 1744 0060 C082      		st Z,r12
  63:lib/lufa/LUFA/Drivers/USB/Core/AVR8/Template/Template_Endpoint_RW.c **** 			}
 1745               		.loc 3 63 0
 1746 0062 85E0      		ldi r24,lo8(5)
 1747 0064 00C0      		rjmp .L133
 1748               	.LVL193:
 1749               	.L137:
  66:lib/lufa/LUFA/Drivers/USB/Core/AVR8/Template/Template_Endpoint_RW.c **** 			  return ErrorCode;
 1750               		.loc 3 66 0
 1751 0066 0E94 0000 		call Endpoint_WaitUntilReady
 1752               	.LVL194:
 1753 006a 8823      		tst r24
 1754 006c 01F0      		breq .L135
 1755 006e 00C0      		rjmp .L133
 1756               	.LVL195:
 1757               	.L136:
 1758               	.LBB334:
 1759               	.LBB335:
 542:lib/lufa/LUFA/Drivers/USB/Core/AVR8/../AVR8/../AVR8/Endpoint_AVR8.h **** 			}
 1760               		.loc 2 542 0
 1761 0070 6091 F100 		lds r22,241
 1762               	.LBE335:
 1763               	.LBE334:
  71:lib/lufa/LUFA/Drivers/USB/Core/AVR8/Template/Template_Endpoint_RW.c **** 			TEMPLATE_BUFFER_MOVE(DataStream, 1);
 1764               		.loc 3 71 0
 1765 0074 CE01      		movw r24,r28
 1766 0076 0E94 0000 		call eeprom_update_byte
 1767               	.LVL196:
  72:lib/lufa/LUFA/Drivers/USB/Core/AVR8/Template/Template_Endpoint_RW.c **** 			Length--;
 1768               		.loc 3 72 0
 1769 007a 2196      		adiw r28,1
 1770               	.LVL197:
  73:lib/lufa/LUFA/Drivers/USB/Core/AVR8/Template/Template_Endpoint_RW.c **** 			BytesInTransfer++;
 1771               		.loc 3 73 0
 1772 007c 0150      		subi r16,1
 1773 007e 1109      		sbc r17,__zero_reg__
 1774               	.LVL198:
  74:lib/lufa/LUFA/Drivers/USB/Core/AVR8/Template/Template_Endpoint_RW.c **** 		}
 1775               		.loc 3 74 0
 1776 0080 FFEF      		ldi r31,-1
 1777 0082 CF1A      		sub r12,r31
 1778 0084 DF0A      		sbc r13,r31
 1779               	.LVL199:
 1780 0086 00C0      		rjmp .L135
 1781               	.L143:
  78:lib/lufa/LUFA/Drivers/USB/Core/AVR8/Template/Template_Endpoint_RW.c **** }
 1782               		.loc 3 78 0
 1783 0088 80E0      		ldi r24,0
 1784               	.LVL200:
 1785               	.L133:
 1786               	/* epilogue start */
 1787               		.loc 3 79 0
 1788 008a DF91      		pop r29
 1789 008c CF91      		pop r28
 1790               	.LVL201:
 1791 008e 1F91      		pop r17
 1792 0090 0F91      		pop r16
 1793               	.LVL202:
 1794 0092 FF90      		pop r15
 1795 0094 EF90      		pop r14
 1796               	.LVL203:
 1797 0096 DF90      		pop r13
 1798 0098 CF90      		pop r12
 1799 009a 0895      		ret
 1800               		.cfi_endproc
 1801               	.LFE90:
 1803               		.section	.text.Endpoint_Read_EStream_BE,"ax",@progbits
 1804               	.global	Endpoint_Read_EStream_BE
 1806               	Endpoint_Read_EStream_BE:
 1807               	.LFB91:
  36:lib/lufa/LUFA/Drivers/USB/Core/AVR8/Template/Template_Endpoint_RW.c **** 	uint8_t* DataStream      = ((uint8_t*)Buffer + TEMPLATE_BUFFER_OFFSET(Length));
 1808               		.loc 3 36 0
 1809               		.cfi_startproc
 1810               	.LVL204:
 1811 0000 CF92      		push r12
 1812               	.LCFI84:
 1813               		.cfi_def_cfa_offset 3
 1814               		.cfi_offset 12, -2
 1815 0002 DF92      		push r13
 1816               	.LCFI85:
 1817               		.cfi_def_cfa_offset 4
 1818               		.cfi_offset 13, -3
 1819 0004 EF92      		push r14
 1820               	.LCFI86:
 1821               		.cfi_def_cfa_offset 5
 1822               		.cfi_offset 14, -4
 1823 0006 FF92      		push r15
 1824               	.LCFI87:
 1825               		.cfi_def_cfa_offset 6
 1826               		.cfi_offset 15, -5
 1827 0008 0F93      		push r16
 1828               	.LCFI88:
 1829               		.cfi_def_cfa_offset 7
 1830               		.cfi_offset 16, -6
 1831 000a 1F93      		push r17
 1832               	.LCFI89:
 1833               		.cfi_def_cfa_offset 8
 1834               		.cfi_offset 17, -7
 1835 000c CF93      		push r28
 1836               	.LCFI90:
 1837               		.cfi_def_cfa_offset 9
 1838               		.cfi_offset 28, -8
 1839 000e DF93      		push r29
 1840               	.LCFI91:
 1841               		.cfi_def_cfa_offset 10
 1842               		.cfi_offset 29, -9
 1843               	/* prologue: function */
 1844               	/* frame size = 0 */
 1845               	/* stack size = 8 */
 1846               	.L__stack_usage = 8
 1847 0010 EC01      		movw r28,r24
 1848 0012 8B01      		movw r16,r22
 1849 0014 7A01      		movw r14,r20
 1850               	.LVL205:
  41:lib/lufa/LUFA/Drivers/USB/Core/AVR8/Template/Template_Endpoint_RW.c **** 	  return ErrorCode;
 1851               		.loc 3 41 0
 1852 0016 0E94 0000 		call Endpoint_WaitUntilReady
 1853               	.LVL206:
 1854 001a 8111      		cpse r24,__zero_reg__
 1855 001c 00C0      		rjmp .L145
  37:lib/lufa/LUFA/Drivers/USB/Core/AVR8/Template/Template_Endpoint_RW.c **** 	uint16_t BytesInTransfer = 0;
 1856               		.loc 3 37 0
 1857 001e C801      		movw r24,r16
 1858               	.LVL207:
 1859 0020 0197      		sbiw r24,1
 1860               	.LVL208:
 1861 0022 C80F      		add r28,r24
 1862 0024 D91F      		adc r29,r25
 1863               	.LVL209:
  44:lib/lufa/LUFA/Drivers/USB/Core/AVR8/Template/Template_Endpoint_RW.c **** 	{
 1864               		.loc 3 44 0
 1865 0026 E114      		cp r14,__zero_reg__
 1866 0028 F104      		cpc r15,__zero_reg__
 1867 002a 01F0      		breq .L146
  46:lib/lufa/LUFA/Drivers/USB/Core/AVR8/Template/Template_Endpoint_RW.c **** 		TEMPLATE_BUFFER_MOVE(DataStream, *BytesProcessed);
 1868               		.loc 3 46 0
 1869 002c F701      		movw r30,r14
 1870 002e 8081      		ld r24,Z
 1871 0030 9181      		ldd r25,Z+1
 1872               	.LVL210:
 1873 0032 081B      		sub r16,r24
 1874 0034 190B      		sbc r17,r25
 1875               	.LVL211:
  47:lib/lufa/LUFA/Drivers/USB/Core/AVR8/Template/Template_Endpoint_RW.c **** 	}
 1876               		.loc 3 47 0
 1877 0036 C81B      		sub r28,r24
 1878 0038 D90B      		sbc r29,r25
 1879               	.LVL212:
 1880               	.L146:
  36:lib/lufa/LUFA/Drivers/USB/Core/AVR8/Template/Template_Endpoint_RW.c **** 	uint8_t* DataStream      = ((uint8_t*)Buffer + TEMPLATE_BUFFER_OFFSET(Length));
 1881               		.loc 3 36 0
 1882 003a C12C      		mov r12,__zero_reg__
 1883 003c D12C      		mov r13,__zero_reg__
 1884               	.LVL213:
 1885               	.L147:
  50:lib/lufa/LUFA/Drivers/USB/Core/AVR8/Template/Template_Endpoint_RW.c **** 	{
 1886               		.loc 3 50 0
 1887 003e 0115      		cp r16,__zero_reg__
 1888 0040 1105      		cpc r17,__zero_reg__
 1889 0042 01F0      		breq .L157
 1890               	.LBB336:
 1891               	.LBB337:
 360:lib/lufa/LUFA/Drivers/USB/Core/AVR8/../AVR8/../AVR8/Endpoint_AVR8.h **** 			}
 1892               		.loc 2 360 0
 1893 0044 8091 E800 		lds r24,232
 1894               	.LBE337:
 1895               	.LBE336:
  52:lib/lufa/LUFA/Drivers/USB/Core/AVR8/Template/Template_Endpoint_RW.c **** 		{
 1896               		.loc 3 52 0
 1897 0048 85FD      		sbrc r24,5
 1898 004a 00C0      		rjmp .L148
 1899               	.LBB338:
 1900               	.LBB339:
 471:lib/lufa/LUFA/Drivers/USB/Core/AVR8/../AVR8/../AVR8/Endpoint_AVR8.h **** 				#else
 1901               		.loc 2 471 0
 1902 004c 8091 E800 		lds r24,232
 1903 0050 8B77      		andi r24,lo8(123)
 1904 0052 8093 E800 		sts 232,r24
 1905               	.LBE339:
 1906               	.LBE338:
  60:lib/lufa/LUFA/Drivers/USB/Core/AVR8/Template/Template_Endpoint_RW.c **** 			{
 1907               		.loc 3 60 0
 1908 0056 E114      		cp r14,__zero_reg__
 1909 0058 F104      		cpc r15,__zero_reg__
 1910 005a 01F0      		breq .L149
  62:lib/lufa/LUFA/Drivers/USB/Core/AVR8/Template/Template_Endpoint_RW.c **** 				return ENDPOINT_RWSTREAM_IncompleteTransfer;
 1911               		.loc 3 62 0
 1912 005c F701      		movw r30,r14
 1913 005e 8081      		ld r24,Z
 1914 0060 9181      		ldd r25,Z+1
 1915 0062 C80E      		add r12,r24
 1916 0064 D91E      		adc r13,r25
 1917               	.LVL214:
 1918 0066 D182      		std Z+1,r13
 1919 0068 C082      		st Z,r12
  63:lib/lufa/LUFA/Drivers/USB/Core/AVR8/Template/Template_Endpoint_RW.c **** 			}
 1920               		.loc 3 63 0
 1921 006a 85E0      		ldi r24,lo8(5)
 1922 006c 00C0      		rjmp .L145
 1923               	.LVL215:
 1924               	.L149:
  66:lib/lufa/LUFA/Drivers/USB/Core/AVR8/Template/Template_Endpoint_RW.c **** 			  return ErrorCode;
 1925               		.loc 3 66 0
 1926 006e 0E94 0000 		call Endpoint_WaitUntilReady
 1927               	.LVL216:
 1928 0072 8823      		tst r24
 1929 0074 01F0      		breq .L147
 1930 0076 00C0      		rjmp .L145
 1931               	.LVL217:
 1932               	.L148:
 1933               	.LBB340:
 1934               	.LBB341:
 542:lib/lufa/LUFA/Drivers/USB/Core/AVR8/../AVR8/../AVR8/Endpoint_AVR8.h **** 			}
 1935               		.loc 2 542 0
 1936 0078 6091 F100 		lds r22,241
 1937               	.LBE341:
 1938               	.LBE340:
  71:lib/lufa/LUFA/Drivers/USB/Core/AVR8/Template/Template_Endpoint_RW.c **** 			TEMPLATE_BUFFER_MOVE(DataStream, 1);
 1939               		.loc 3 71 0
 1940 007c CE01      		movw r24,r28
 1941 007e 0E94 0000 		call eeprom_update_byte
 1942               	.LVL218:
  72:lib/lufa/LUFA/Drivers/USB/Core/AVR8/Template/Template_Endpoint_RW.c **** 			Length--;
 1943               		.loc 3 72 0
 1944 0082 2197      		sbiw r28,1
 1945               	.LVL219:
  73:lib/lufa/LUFA/Drivers/USB/Core/AVR8/Template/Template_Endpoint_RW.c **** 			BytesInTransfer++;
 1946               		.loc 3 73 0
 1947 0084 0150      		subi r16,1
 1948 0086 1109      		sbc r17,__zero_reg__
 1949               	.LVL220:
  74:lib/lufa/LUFA/Drivers/USB/Core/AVR8/Template/Template_Endpoint_RW.c **** 		}
 1950               		.loc 3 74 0
 1951 0088 FFEF      		ldi r31,-1
 1952 008a CF1A      		sub r12,r31
 1953 008c DF0A      		sbc r13,r31
 1954               	.LVL221:
 1955 008e 00C0      		rjmp .L147
 1956               	.L157:
  78:lib/lufa/LUFA/Drivers/USB/Core/AVR8/Template/Template_Endpoint_RW.c **** }
 1957               		.loc 3 78 0
 1958 0090 80E0      		ldi r24,0
 1959               	.LVL222:
 1960               	.L145:
 1961               	/* epilogue start */
 1962               		.loc 3 79 0
 1963 0092 DF91      		pop r29
 1964 0094 CF91      		pop r28
 1965 0096 1F91      		pop r17
 1966 0098 0F91      		pop r16
 1967               	.LVL223:
 1968 009a FF90      		pop r15
 1969 009c EF90      		pop r14
 1970               	.LVL224:
 1971 009e DF90      		pop r13
 1972 00a0 CF90      		pop r12
 1973 00a2 0895      		ret
 1974               		.cfi_endproc
 1975               	.LFE91:
 1977               		.section	.text.Endpoint_Write_Control_Stream_LE,"ax",@progbits
 1978               	.global	Endpoint_Write_Control_Stream_LE
 1980               	Endpoint_Write_Control_Stream_LE:
 1981               	.LFB92:
 1982               		.file 4 "lib/lufa/LUFA/Drivers/USB/Core/AVR8/Template/Template_Endpoint_Control_W.c"
   1:lib/lufa/LUFA/Drivers/USB/Core/AVR8/Template/Template_Endpoint_Control_W.c **** /*
   2:lib/lufa/LUFA/Drivers/USB/Core/AVR8/Template/Template_Endpoint_Control_W.c ****              LUFA Library
   3:lib/lufa/LUFA/Drivers/USB/Core/AVR8/Template/Template_Endpoint_Control_W.c ****      Copyright (C) Dean Camera, 2019.
   4:lib/lufa/LUFA/Drivers/USB/Core/AVR8/Template/Template_Endpoint_Control_W.c **** 
   5:lib/lufa/LUFA/Drivers/USB/Core/AVR8/Template/Template_Endpoint_Control_W.c ****   dean [at] fourwalledcubicle [dot] com
   6:lib/lufa/LUFA/Drivers/USB/Core/AVR8/Template/Template_Endpoint_Control_W.c ****            www.lufa-lib.org
   7:lib/lufa/LUFA/Drivers/USB/Core/AVR8/Template/Template_Endpoint_Control_W.c **** */
   8:lib/lufa/LUFA/Drivers/USB/Core/AVR8/Template/Template_Endpoint_Control_W.c **** 
   9:lib/lufa/LUFA/Drivers/USB/Core/AVR8/Template/Template_Endpoint_Control_W.c **** /*
  10:lib/lufa/LUFA/Drivers/USB/Core/AVR8/Template/Template_Endpoint_Control_W.c ****   Copyright 2019  Dean Camera (dean [at] fourwalledcubicle [dot] com)
  11:lib/lufa/LUFA/Drivers/USB/Core/AVR8/Template/Template_Endpoint_Control_W.c **** 
  12:lib/lufa/LUFA/Drivers/USB/Core/AVR8/Template/Template_Endpoint_Control_W.c ****   Permission to use, copy, modify, distribute, and sell this
  13:lib/lufa/LUFA/Drivers/USB/Core/AVR8/Template/Template_Endpoint_Control_W.c ****   software and its documentation for any purpose is hereby granted
  14:lib/lufa/LUFA/Drivers/USB/Core/AVR8/Template/Template_Endpoint_Control_W.c ****   without fee, provided that the above copyright notice appear in
  15:lib/lufa/LUFA/Drivers/USB/Core/AVR8/Template/Template_Endpoint_Control_W.c ****   all copies and that both that the copyright notice and this
  16:lib/lufa/LUFA/Drivers/USB/Core/AVR8/Template/Template_Endpoint_Control_W.c ****   permission notice and warranty disclaimer appear in supporting
  17:lib/lufa/LUFA/Drivers/USB/Core/AVR8/Template/Template_Endpoint_Control_W.c ****   documentation, and that the name of the author not be used in
  18:lib/lufa/LUFA/Drivers/USB/Core/AVR8/Template/Template_Endpoint_Control_W.c ****   advertising or publicity pertaining to distribution of the
  19:lib/lufa/LUFA/Drivers/USB/Core/AVR8/Template/Template_Endpoint_Control_W.c ****   software without specific, written prior permission.
  20:lib/lufa/LUFA/Drivers/USB/Core/AVR8/Template/Template_Endpoint_Control_W.c **** 
  21:lib/lufa/LUFA/Drivers/USB/Core/AVR8/Template/Template_Endpoint_Control_W.c ****   The author disclaims all warranties with regard to this
  22:lib/lufa/LUFA/Drivers/USB/Core/AVR8/Template/Template_Endpoint_Control_W.c ****   software, including all implied warranties of merchantability
  23:lib/lufa/LUFA/Drivers/USB/Core/AVR8/Template/Template_Endpoint_Control_W.c ****   and fitness.  In no event shall the author be liable for any
  24:lib/lufa/LUFA/Drivers/USB/Core/AVR8/Template/Template_Endpoint_Control_W.c ****   special, indirect or consequential damages or any damages
  25:lib/lufa/LUFA/Drivers/USB/Core/AVR8/Template/Template_Endpoint_Control_W.c ****   whatsoever resulting from loss of use, data or profits, whether
  26:lib/lufa/LUFA/Drivers/USB/Core/AVR8/Template/Template_Endpoint_Control_W.c ****   in an action of contract, negligence or other tortious action,
  27:lib/lufa/LUFA/Drivers/USB/Core/AVR8/Template/Template_Endpoint_Control_W.c ****   arising out of or in connection with the use or performance of
  28:lib/lufa/LUFA/Drivers/USB/Core/AVR8/Template/Template_Endpoint_Control_W.c ****   this software.
  29:lib/lufa/LUFA/Drivers/USB/Core/AVR8/Template/Template_Endpoint_Control_W.c **** */
  30:lib/lufa/LUFA/Drivers/USB/Core/AVR8/Template/Template_Endpoint_Control_W.c **** 
  31:lib/lufa/LUFA/Drivers/USB/Core/AVR8/Template/Template_Endpoint_Control_W.c **** #if defined(TEMPLATE_FUNC_NAME)
  32:lib/lufa/LUFA/Drivers/USB/Core/AVR8/Template/Template_Endpoint_Control_W.c **** 
  33:lib/lufa/LUFA/Drivers/USB/Core/AVR8/Template/Template_Endpoint_Control_W.c **** uint8_t TEMPLATE_FUNC_NAME (const void* const Buffer,
  34:lib/lufa/LUFA/Drivers/USB/Core/AVR8/Template/Template_Endpoint_Control_W.c ****                             uint16_t Length)
  35:lib/lufa/LUFA/Drivers/USB/Core/AVR8/Template/Template_Endpoint_Control_W.c **** {
 1983               		.loc 4 35 0
 1984               		.cfi_startproc
 1985               	.LVL225:
 1986               	/* prologue: function */
 1987               	/* frame size = 0 */
 1988               	/* stack size = 0 */
 1989               	.L__stack_usage = 0
  36:lib/lufa/LUFA/Drivers/USB/Core/AVR8/Template/Template_Endpoint_Control_W.c **** 	uint8_t* DataStream     = ((uint8_t*)Buffer + TEMPLATE_BUFFER_OFFSET(Length));
  37:lib/lufa/LUFA/Drivers/USB/Core/AVR8/Template/Template_Endpoint_Control_W.c **** 	bool     LastPacketFull = false;
  38:lib/lufa/LUFA/Drivers/USB/Core/AVR8/Template/Template_Endpoint_Control_W.c **** 
  39:lib/lufa/LUFA/Drivers/USB/Core/AVR8/Template/Template_Endpoint_Control_W.c **** 	if (Length > USB_ControlRequest.wLength)
 1990               		.loc 4 39 0
 1991 0000 2091 0000 		lds r18,USB_ControlRequest+6
 1992 0004 3091 0000 		lds r19,USB_ControlRequest+6+1
 1993 0008 2617      		cp r18,r22
 1994 000a 3707      		cpc r19,r23
 1995 000c 00F0      		brlo .L170
  40:lib/lufa/LUFA/Drivers/USB/Core/AVR8/Template/Template_Endpoint_Control_W.c **** 	  Length = USB_ControlRequest.wLength;
  41:lib/lufa/LUFA/Drivers/USB/Core/AVR8/Template/Template_Endpoint_Control_W.c **** 	else if (!(Length))
 1996               		.loc 4 41 0
 1997 000e 6115      		cp r22,__zero_reg__
 1998 0010 7105      		cpc r23,__zero_reg__
 1999 0012 01F4      		brne .L159
 2000               	.LBB342:
 2001               	.LBB343:
 456:lib/lufa/LUFA/Drivers/USB/Core/AVR8/../AVR8/../AVR8/Endpoint_AVR8.h **** 				#else
 2002               		.loc 2 456 0
 2003 0014 2091 E800 		lds r18,232
 2004 0018 2E77      		andi r18,lo8(126)
 2005 001a 2093 E800 		sts 232,r18
 2006 001e 00C0      		rjmp .L159
 2007               	.L170:
 2008               	.LBE343:
 2009               	.LBE342:
 2010 0020 B901      		movw r22,r18
 2011               	.LVL226:
 2012               	.L159:
 2013 0022 FC01      		movw r30,r24
 2014 0024 20E0      		ldi r18,0
 2015               	.LVL227:
 2016               	.L163:
  42:lib/lufa/LUFA/Drivers/USB/Core/AVR8/Template/Template_Endpoint_Control_W.c **** 	  Endpoint_ClearIN();
  43:lib/lufa/LUFA/Drivers/USB/Core/AVR8/Template/Template_Endpoint_Control_W.c **** 
  44:lib/lufa/LUFA/Drivers/USB/Core/AVR8/Template/Template_Endpoint_Control_W.c **** 	while (Length || LastPacketFull)
 2017               		.loc 4 44 0
 2018 0026 6115      		cp r22,__zero_reg__
 2019 0028 7105      		cpc r23,__zero_reg__
 2020 002a 01F0      		breq .L186
 2021               	.L168:
 2022               	.LBB344:
  45:lib/lufa/LUFA/Drivers/USB/Core/AVR8/Template/Template_Endpoint_Control_W.c **** 	{
  46:lib/lufa/LUFA/Drivers/USB/Core/AVR8/Template/Template_Endpoint_Control_W.c **** 		uint8_t USB_DeviceState_LCL = USB_DeviceState;
 2023               		.loc 4 46 0
 2024 002c 8091 0000 		lds r24,USB_DeviceState
 2025               	.LVL228:
  47:lib/lufa/LUFA/Drivers/USB/Core/AVR8/Template/Template_Endpoint_Control_W.c **** 
  48:lib/lufa/LUFA/Drivers/USB/Core/AVR8/Template/Template_Endpoint_Control_W.c **** 		if (USB_DeviceState_LCL == DEVICE_STATE_Unattached)
 2026               		.loc 4 48 0
 2027 0030 8823      		tst r24
 2028 0032 01F0      		breq .L174
  49:lib/lufa/LUFA/Drivers/USB/Core/AVR8/Template/Template_Endpoint_Control_W.c **** 		  return ENDPOINT_RWCSTREAM_DeviceDisconnected;
  50:lib/lufa/LUFA/Drivers/USB/Core/AVR8/Template/Template_Endpoint_Control_W.c **** 		else if (USB_DeviceState_LCL == DEVICE_STATE_Suspended)
 2029               		.loc 4 50 0
 2030 0034 8530      		cpi r24,lo8(5)
 2031 0036 01F0      		breq .L175
 2032               	.LBB345:
 2033               	.LBB346:
 431:lib/lufa/LUFA/Drivers/USB/Core/AVR8/../AVR8/../AVR8/Endpoint_AVR8.h **** 			}
 2034               		.loc 2 431 0
 2035 0038 8091 E800 		lds r24,232
 2036               	.LVL229:
 2037               	.LBE346:
 2038               	.LBE345:
  51:lib/lufa/LUFA/Drivers/USB/Core/AVR8/Template/Template_Endpoint_Control_W.c **** 		  return ENDPOINT_RWCSTREAM_BusSuspended;
  52:lib/lufa/LUFA/Drivers/USB/Core/AVR8/Template/Template_Endpoint_Control_W.c **** 		else if (Endpoint_IsSETUPReceived())
 2039               		.loc 4 52 0
 2040 003c 83FD      		sbrc r24,3
 2041 003e 00C0      		rjmp .L176
 2042               	.LBB347:
 2043               	.LBB348:
 419:lib/lufa/LUFA/Drivers/USB/Core/AVR8/../AVR8/../AVR8/Endpoint_AVR8.h **** 			}
 2044               		.loc 2 419 0
 2045 0040 8091 E800 		lds r24,232
 2046               	.LBE348:
 2047               	.LBE347:
  53:lib/lufa/LUFA/Drivers/USB/Core/AVR8/Template/Template_Endpoint_Control_W.c **** 		  return ENDPOINT_RWCSTREAM_HostAborted;
  54:lib/lufa/LUFA/Drivers/USB/Core/AVR8/Template/Template_Endpoint_Control_W.c **** 		else if (Endpoint_IsOUTReceived())
 2048               		.loc 4 54 0
 2049 0044 82FD      		sbrc r24,2
 2050 0046 00C0      		rjmp .L182
 2051               	.LBB349:
 2052               	.LBB350:
 407:lib/lufa/LUFA/Drivers/USB/Core/AVR8/../AVR8/../AVR8/Endpoint_AVR8.h **** 			}
 2053               		.loc 2 407 0
 2054 0048 8091 E800 		lds r24,232
 2055               	.LBE350:
 2056               	.LBE349:
  55:lib/lufa/LUFA/Drivers/USB/Core/AVR8/Template/Template_Endpoint_Control_W.c **** 		  break;
  56:lib/lufa/LUFA/Drivers/USB/Core/AVR8/Template/Template_Endpoint_Control_W.c **** 
  57:lib/lufa/LUFA/Drivers/USB/Core/AVR8/Template/Template_Endpoint_Control_W.c **** 		if (Endpoint_IsINReady())
 2057               		.loc 4 57 0
 2058 004c 80FF      		sbrs r24,0
 2059 004e 00C0      		rjmp .L163
 2060               	.LBB351:
 2061               	.LBB352:
 2062               	.LBB353:
 229:lib/lufa/LUFA/Drivers/USB/Core/AVR8/../AVR8/../AVR8/Endpoint_AVR8.h **** 				#endif
 2063               		.loc 2 229 0
 2064 0050 8091 F200 		lds r24,242
 2065 0054 90E0      		ldi r25,0
 2066               	.LVL230:
 2067               	.L164:
 2068               	.LBE353:
 2069               	.LBE352:
  58:lib/lufa/LUFA/Drivers/USB/Core/AVR8/Template/Template_Endpoint_Control_W.c **** 		{
  59:lib/lufa/LUFA/Drivers/USB/Core/AVR8/Template/Template_Endpoint_Control_W.c **** 			uint16_t BytesInEndpoint = Endpoint_BytesInEndpoint();
  60:lib/lufa/LUFA/Drivers/USB/Core/AVR8/Template/Template_Endpoint_Control_W.c **** 
  61:lib/lufa/LUFA/Drivers/USB/Core/AVR8/Template/Template_Endpoint_Control_W.c **** 			while (Length && (BytesInEndpoint < USB_Device_ControlEndpointSize))
 2070               		.loc 4 61 0
 2071 0056 6115      		cp r22,__zero_reg__
 2072 0058 7105      		cpc r23,__zero_reg__
 2073 005a 01F0      		breq .L165
 2074               		.loc 4 61 0 is_stmt 0 discriminator 1
 2075 005c 8830      		cpi r24,8
 2076 005e 9105      		cpc r25,__zero_reg__
 2077 0060 00F4      		brsh .L165
  62:lib/lufa/LUFA/Drivers/USB/Core/AVR8/Template/Template_Endpoint_Control_W.c **** 			{
  63:lib/lufa/LUFA/Drivers/USB/Core/AVR8/Template/Template_Endpoint_Control_W.c **** 				TEMPLATE_TRANSFER_BYTE(DataStream);
 2078               		.loc 4 63 0 is_stmt 1
 2079 0062 2191      		ld r18,Z+
 2080               	.LVL231:
 2081               	.LBB354:
 2082               	.LBB355:
 554:lib/lufa/LUFA/Drivers/USB/Core/AVR8/../AVR8/../AVR8/Endpoint_AVR8.h **** 			}
 2083               		.loc 2 554 0
 2084 0064 2093 F100 		sts 241,r18
 2085               	.LVL232:
 2086               	.LBE355:
 2087               	.LBE354:
  64:lib/lufa/LUFA/Drivers/USB/Core/AVR8/Template/Template_Endpoint_Control_W.c **** 				TEMPLATE_BUFFER_MOVE(DataStream, 1);
  65:lib/lufa/LUFA/Drivers/USB/Core/AVR8/Template/Template_Endpoint_Control_W.c **** 				Length--;
 2088               		.loc 4 65 0
 2089 0068 6150      		subi r22,1
 2090 006a 7109      		sbc r23,__zero_reg__
 2091               	.LVL233:
  66:lib/lufa/LUFA/Drivers/USB/Core/AVR8/Template/Template_Endpoint_Control_W.c **** 				BytesInEndpoint++;
 2092               		.loc 4 66 0
 2093 006c 0196      		adiw r24,1
 2094               	.LVL234:
 2095 006e 00C0      		rjmp .L164
 2096               	.L165:
  67:lib/lufa/LUFA/Drivers/USB/Core/AVR8/Template/Template_Endpoint_Control_W.c **** 			}
  68:lib/lufa/LUFA/Drivers/USB/Core/AVR8/Template/Template_Endpoint_Control_W.c **** 
  69:lib/lufa/LUFA/Drivers/USB/Core/AVR8/Template/Template_Endpoint_Control_W.c **** 			LastPacketFull = (BytesInEndpoint == USB_Device_ControlEndpointSize);
 2097               		.loc 4 69 0
 2098 0070 21E0      		ldi r18,lo8(1)
 2099 0072 0897      		sbiw r24,8
 2100 0074 01F0      		breq .L167
 2101 0076 20E0      		ldi r18,0
 2102               	.L167:
 2103               	.LVL235:
 2104               	.LBB356:
 2105               	.LBB357:
 456:lib/lufa/LUFA/Drivers/USB/Core/AVR8/../AVR8/../AVR8/Endpoint_AVR8.h **** 				#else
 2106               		.loc 2 456 0
 2107 0078 8091 E800 		lds r24,232
 2108               	.LVL236:
 2109 007c 8E77      		andi r24,lo8(126)
 2110 007e 8093 E800 		sts 232,r24
 2111 0082 00C0      		rjmp .L163
 2112               	.L186:
 2113               	.LBE357:
 2114               	.LBE356:
 2115               	.LBE351:
 2116               	.LBE344:
  44:lib/lufa/LUFA/Drivers/USB/Core/AVR8/Template/Template_Endpoint_Control_W.c **** 	{
 2117               		.loc 4 44 0 discriminator 1
 2118 0084 2111      		cpse r18,__zero_reg__
 2119 0086 00C0      		rjmp .L168
 2120 0088 00C0      		rjmp .L182
 2121               	.L169:
 2122               	.LBB358:
  70:lib/lufa/LUFA/Drivers/USB/Core/AVR8/Template/Template_Endpoint_Control_W.c **** 			Endpoint_ClearIN();
  71:lib/lufa/LUFA/Drivers/USB/Core/AVR8/Template/Template_Endpoint_Control_W.c **** 		}
  72:lib/lufa/LUFA/Drivers/USB/Core/AVR8/Template/Template_Endpoint_Control_W.c **** 	}
  73:lib/lufa/LUFA/Drivers/USB/Core/AVR8/Template/Template_Endpoint_Control_W.c **** 
  74:lib/lufa/LUFA/Drivers/USB/Core/AVR8/Template/Template_Endpoint_Control_W.c **** 	while (!(Endpoint_IsOUTReceived()))
  75:lib/lufa/LUFA/Drivers/USB/Core/AVR8/Template/Template_Endpoint_Control_W.c **** 	{
  76:lib/lufa/LUFA/Drivers/USB/Core/AVR8/Template/Template_Endpoint_Control_W.c **** 		uint8_t USB_DeviceState_LCL = USB_DeviceState;
 2123               		.loc 4 76 0
 2124 008a 8091 0000 		lds r24,USB_DeviceState
 2125               	.LVL237:
  77:lib/lufa/LUFA/Drivers/USB/Core/AVR8/Template/Template_Endpoint_Control_W.c **** 
  78:lib/lufa/LUFA/Drivers/USB/Core/AVR8/Template/Template_Endpoint_Control_W.c **** 		if (USB_DeviceState_LCL == DEVICE_STATE_Unattached)
 2126               		.loc 4 78 0
 2127 008e 8823      		tst r24
 2128 0090 01F0      		breq .L174
  79:lib/lufa/LUFA/Drivers/USB/Core/AVR8/Template/Template_Endpoint_Control_W.c **** 		  return ENDPOINT_RWCSTREAM_DeviceDisconnected;
  80:lib/lufa/LUFA/Drivers/USB/Core/AVR8/Template/Template_Endpoint_Control_W.c **** 		else if (USB_DeviceState_LCL == DEVICE_STATE_Suspended)
 2129               		.loc 4 80 0
 2130 0092 8530      		cpi r24,lo8(5)
 2131 0094 01F0      		breq .L175
 2132               	.LBB359:
 2133               	.LBB360:
 431:lib/lufa/LUFA/Drivers/USB/Core/AVR8/../AVR8/../AVR8/Endpoint_AVR8.h **** 			}
 2134               		.loc 2 431 0
 2135 0096 8091 E800 		lds r24,232
 2136               	.LVL238:
 2137               	.LBE360:
 2138               	.LBE359:
  81:lib/lufa/LUFA/Drivers/USB/Core/AVR8/Template/Template_Endpoint_Control_W.c **** 		  return ENDPOINT_RWCSTREAM_BusSuspended;
  82:lib/lufa/LUFA/Drivers/USB/Core/AVR8/Template/Template_Endpoint_Control_W.c **** 		else if (Endpoint_IsSETUPReceived())
 2139               		.loc 4 82 0
 2140 009a 83FD      		sbrc r24,3
 2141 009c 00C0      		rjmp .L176
 2142               	.L182:
 2143               	.LBE358:
 2144               	.LBB361:
 2145               	.LBB362:
 419:lib/lufa/LUFA/Drivers/USB/Core/AVR8/../AVR8/../AVR8/Endpoint_AVR8.h **** 			}
 2146               		.loc 2 419 0
 2147 009e 8091 E800 		lds r24,232
 2148               	.LBE362:
 2149               	.LBE361:
  74:lib/lufa/LUFA/Drivers/USB/Core/AVR8/Template/Template_Endpoint_Control_W.c **** 	{
 2150               		.loc 4 74 0
 2151 00a2 82FF      		sbrs r24,2
 2152 00a4 00C0      		rjmp .L169
  83:lib/lufa/LUFA/Drivers/USB/Core/AVR8/Template/Template_Endpoint_Control_W.c **** 		  return ENDPOINT_RWCSTREAM_HostAborted;
  84:lib/lufa/LUFA/Drivers/USB/Core/AVR8/Template/Template_Endpoint_Control_W.c **** 	}
  85:lib/lufa/LUFA/Drivers/USB/Core/AVR8/Template/Template_Endpoint_Control_W.c **** 
  86:lib/lufa/LUFA/Drivers/USB/Core/AVR8/Template/Template_Endpoint_Control_W.c **** 	return ENDPOINT_RWCSTREAM_NoError;
 2153               		.loc 4 86 0
 2154 00a6 80E0      		ldi r24,0
 2155 00a8 0895      		ret
 2156               	.L174:
 2157               	.LBB363:
  49:lib/lufa/LUFA/Drivers/USB/Core/AVR8/Template/Template_Endpoint_Control_W.c **** 		else if (USB_DeviceState_LCL == DEVICE_STATE_Suspended)
 2158               		.loc 4 49 0
 2159 00aa 82E0      		ldi r24,lo8(2)
 2160 00ac 0895      		ret
 2161               	.L175:
  51:lib/lufa/LUFA/Drivers/USB/Core/AVR8/Template/Template_Endpoint_Control_W.c **** 		else if (Endpoint_IsSETUPReceived())
 2162               		.loc 4 51 0
 2163 00ae 83E0      		ldi r24,lo8(3)
 2164 00b0 0895      		ret
 2165               	.L176:
  53:lib/lufa/LUFA/Drivers/USB/Core/AVR8/Template/Template_Endpoint_Control_W.c **** 		else if (Endpoint_IsOUTReceived())
 2166               		.loc 4 53 0
 2167 00b2 81E0      		ldi r24,lo8(1)
 2168               	.LBE363:
  87:lib/lufa/LUFA/Drivers/USB/Core/AVR8/Template/Template_Endpoint_Control_W.c **** }
 2169               		.loc 4 87 0
 2170 00b4 0895      		ret
 2171               		.cfi_endproc
 2172               	.LFE92:
 2174               		.section	.text.Endpoint_Write_Control_Stream_BE,"ax",@progbits
 2175               	.global	Endpoint_Write_Control_Stream_BE
 2177               	Endpoint_Write_Control_Stream_BE:
 2178               	.LFB93:
  35:lib/lufa/LUFA/Drivers/USB/Core/AVR8/Template/Template_Endpoint_Control_W.c **** 	uint8_t* DataStream     = ((uint8_t*)Buffer + TEMPLATE_BUFFER_OFFSET(Length));
 2179               		.loc 4 35 0
 2180               		.cfi_startproc
 2181               	.LVL239:
 2182               	/* prologue: function */
 2183               	/* frame size = 0 */
 2184               	/* stack size = 0 */
 2185               	.L__stack_usage = 0
  36:lib/lufa/LUFA/Drivers/USB/Core/AVR8/Template/Template_Endpoint_Control_W.c **** 	bool     LastPacketFull = false;
 2186               		.loc 4 36 0
 2187 0000 9B01      		movw r18,r22
 2188 0002 2150      		subi r18,1
 2189 0004 3109      		sbc r19,__zero_reg__
 2190 0006 820F      		add r24,r18
 2191 0008 931F      		adc r25,r19
 2192               	.LVL240:
  39:lib/lufa/LUFA/Drivers/USB/Core/AVR8/Template/Template_Endpoint_Control_W.c **** 	  Length = USB_ControlRequest.wLength;
 2193               		.loc 4 39 0
 2194 000a 2091 0000 		lds r18,USB_ControlRequest+6
 2195 000e 3091 0000 		lds r19,USB_ControlRequest+6+1
 2196 0012 2617      		cp r18,r22
 2197 0014 3707      		cpc r19,r23
 2198 0016 00F0      		brlo .L199
  41:lib/lufa/LUFA/Drivers/USB/Core/AVR8/Template/Template_Endpoint_Control_W.c **** 	  Endpoint_ClearIN();
 2199               		.loc 4 41 0
 2200 0018 6115      		cp r22,__zero_reg__
 2201 001a 7105      		cpc r23,__zero_reg__
 2202 001c 01F4      		brne .L188
 2203               	.LBB364:
 2204               	.LBB365:
 456:lib/lufa/LUFA/Drivers/USB/Core/AVR8/../AVR8/../AVR8/Endpoint_AVR8.h **** 				#else
 2205               		.loc 2 456 0
 2206 001e 2091 E800 		lds r18,232
 2207 0022 2E77      		andi r18,lo8(126)
 2208 0024 2093 E800 		sts 232,r18
 2209 0028 00C0      		rjmp .L188
 2210               	.L199:
 2211               	.LBE365:
 2212               	.LBE364:
 2213 002a B901      		movw r22,r18
 2214               	.LVL241:
 2215               	.L188:
 2216 002c 40E0      		ldi r20,0
 2217               	.LVL242:
 2218               	.L192:
  44:lib/lufa/LUFA/Drivers/USB/Core/AVR8/Template/Template_Endpoint_Control_W.c **** 	{
 2219               		.loc 4 44 0
 2220 002e 6115      		cp r22,__zero_reg__
 2221 0030 7105      		cpc r23,__zero_reg__
 2222 0032 01F0      		breq .L215
 2223               	.L197:
 2224               	.LBB366:
  46:lib/lufa/LUFA/Drivers/USB/Core/AVR8/Template/Template_Endpoint_Control_W.c **** 
 2225               		.loc 4 46 0
 2226 0034 2091 0000 		lds r18,USB_DeviceState
 2227               	.LVL243:
  48:lib/lufa/LUFA/Drivers/USB/Core/AVR8/Template/Template_Endpoint_Control_W.c **** 		  return ENDPOINT_RWCSTREAM_DeviceDisconnected;
 2228               		.loc 4 48 0
 2229 0038 2223      		tst r18
 2230 003a 01F4      		brne .+2
 2231 003c 00C0      		rjmp .L203
  50:lib/lufa/LUFA/Drivers/USB/Core/AVR8/Template/Template_Endpoint_Control_W.c **** 		  return ENDPOINT_RWCSTREAM_BusSuspended;
 2232               		.loc 4 50 0
 2233 003e 2530      		cpi r18,lo8(5)
 2234 0040 01F4      		brne .+2
 2235 0042 00C0      		rjmp .L204
 2236               	.LBB367:
 2237               	.LBB368:
 431:lib/lufa/LUFA/Drivers/USB/Core/AVR8/../AVR8/../AVR8/Endpoint_AVR8.h **** 			}
 2238               		.loc 2 431 0
 2239 0044 2091 E800 		lds r18,232
 2240               	.LVL244:
 2241               	.LBE368:
 2242               	.LBE367:
  52:lib/lufa/LUFA/Drivers/USB/Core/AVR8/Template/Template_Endpoint_Control_W.c **** 		  return ENDPOINT_RWCSTREAM_HostAborted;
 2243               		.loc 4 52 0
 2244 0048 23FD      		sbrc r18,3
 2245 004a 00C0      		rjmp .L205
 2246               	.LBB369:
 2247               	.LBB370:
 419:lib/lufa/LUFA/Drivers/USB/Core/AVR8/../AVR8/../AVR8/Endpoint_AVR8.h **** 			}
 2248               		.loc 2 419 0
 2249 004c 2091 E800 		lds r18,232
 2250               	.LBE370:
 2251               	.LBE369:
  54:lib/lufa/LUFA/Drivers/USB/Core/AVR8/Template/Template_Endpoint_Control_W.c **** 		  break;
 2252               		.loc 4 54 0
 2253 0050 22FD      		sbrc r18,2
 2254 0052 00C0      		rjmp .L211
 2255               	.LBB371:
 2256               	.LBB372:
 407:lib/lufa/LUFA/Drivers/USB/Core/AVR8/../AVR8/../AVR8/Endpoint_AVR8.h **** 			}
 2257               		.loc 2 407 0
 2258 0054 2091 E800 		lds r18,232
 2259               	.LBE372:
 2260               	.LBE371:
  57:lib/lufa/LUFA/Drivers/USB/Core/AVR8/Template/Template_Endpoint_Control_W.c **** 		{
 2261               		.loc 4 57 0
 2262 0058 20FF      		sbrs r18,0
 2263 005a 00C0      		rjmp .L192
 2264               	.LBB373:
 2265               	.LBB374:
 2266               	.LBB375:
 229:lib/lufa/LUFA/Drivers/USB/Core/AVR8/../AVR8/../AVR8/Endpoint_AVR8.h **** 				#endif
 2267               		.loc 2 229 0
 2268 005c 2091 F200 		lds r18,242
 2269 0060 30E0      		ldi r19,0
 2270               	.LVL245:
 2271               	.L193:
 2272               	.LBE375:
 2273               	.LBE374:
  61:lib/lufa/LUFA/Drivers/USB/Core/AVR8/Template/Template_Endpoint_Control_W.c **** 			{
 2274               		.loc 4 61 0
 2275 0062 6115      		cp r22,__zero_reg__
 2276 0064 7105      		cpc r23,__zero_reg__
 2277 0066 01F0      		breq .L194
  61:lib/lufa/LUFA/Drivers/USB/Core/AVR8/Template/Template_Endpoint_Control_W.c **** 			{
 2278               		.loc 4 61 0 is_stmt 0 discriminator 1
 2279 0068 2830      		cpi r18,8
 2280 006a 3105      		cpc r19,__zero_reg__
 2281 006c 00F4      		brsh .L194
  63:lib/lufa/LUFA/Drivers/USB/Core/AVR8/Template/Template_Endpoint_Control_W.c **** 				TEMPLATE_BUFFER_MOVE(DataStream, 1);
 2282               		.loc 4 63 0 is_stmt 1
 2283 006e FC01      		movw r30,r24
 2284 0070 4081      		ld r20,Z
 2285               	.LVL246:
 2286               	.LBB376:
 2287               	.LBB377:
 554:lib/lufa/LUFA/Drivers/USB/Core/AVR8/../AVR8/../AVR8/Endpoint_AVR8.h **** 			}
 2288               		.loc 2 554 0
 2289 0072 4093 F100 		sts 241,r20
 2290               	.LVL247:
 2291               	.LBE377:
 2292               	.LBE376:
  64:lib/lufa/LUFA/Drivers/USB/Core/AVR8/Template/Template_Endpoint_Control_W.c **** 				Length--;
 2293               		.loc 4 64 0
 2294 0076 0197      		sbiw r24,1
 2295               	.LVL248:
  65:lib/lufa/LUFA/Drivers/USB/Core/AVR8/Template/Template_Endpoint_Control_W.c **** 				BytesInEndpoint++;
 2296               		.loc 4 65 0
 2297 0078 6150      		subi r22,1
 2298 007a 7109      		sbc r23,__zero_reg__
 2299               	.LVL249:
  66:lib/lufa/LUFA/Drivers/USB/Core/AVR8/Template/Template_Endpoint_Control_W.c **** 			}
 2300               		.loc 4 66 0
 2301 007c 2F5F      		subi r18,-1
 2302 007e 3F4F      		sbci r19,-1
 2303               	.LVL250:
 2304 0080 00C0      		rjmp .L193
 2305               	.L194:
  69:lib/lufa/LUFA/Drivers/USB/Core/AVR8/Template/Template_Endpoint_Control_W.c **** 			Endpoint_ClearIN();
 2306               		.loc 4 69 0
 2307 0082 41E0      		ldi r20,lo8(1)
 2308 0084 2830      		cpi r18,8
 2309 0086 3105      		cpc r19,__zero_reg__
 2310 0088 01F0      		breq .L196
 2311 008a 40E0      		ldi r20,0
 2312               	.L196:
 2313               	.LVL251:
 2314               	.LBB378:
 2315               	.LBB379:
 456:lib/lufa/LUFA/Drivers/USB/Core/AVR8/../AVR8/../AVR8/Endpoint_AVR8.h **** 				#else
 2316               		.loc 2 456 0
 2317 008c 2091 E800 		lds r18,232
 2318               	.LVL252:
 2319 0090 2E77      		andi r18,lo8(126)
 2320 0092 2093 E800 		sts 232,r18
 2321 0096 00C0      		rjmp .L192
 2322               	.L215:
 2323               	.LBE379:
 2324               	.LBE378:
 2325               	.LBE373:
 2326               	.LBE366:
  44:lib/lufa/LUFA/Drivers/USB/Core/AVR8/Template/Template_Endpoint_Control_W.c **** 	{
 2327               		.loc 4 44 0 discriminator 1
 2328 0098 4111      		cpse r20,__zero_reg__
 2329 009a 00C0      		rjmp .L197
 2330 009c 00C0      		rjmp .L211
 2331               	.LVL253:
 2332               	.L198:
 2333               	.LBB380:
  76:lib/lufa/LUFA/Drivers/USB/Core/AVR8/Template/Template_Endpoint_Control_W.c **** 
 2334               		.loc 4 76 0
 2335 009e 8091 0000 		lds r24,USB_DeviceState
 2336               	.LVL254:
  78:lib/lufa/LUFA/Drivers/USB/Core/AVR8/Template/Template_Endpoint_Control_W.c **** 		  return ENDPOINT_RWCSTREAM_DeviceDisconnected;
 2337               		.loc 4 78 0
 2338 00a2 8823      		tst r24
 2339 00a4 01F0      		breq .L203
  80:lib/lufa/LUFA/Drivers/USB/Core/AVR8/Template/Template_Endpoint_Control_W.c **** 		  return ENDPOINT_RWCSTREAM_BusSuspended;
 2340               		.loc 4 80 0
 2341 00a6 8530      		cpi r24,lo8(5)
 2342 00a8 01F0      		breq .L204
 2343               	.LBB381:
 2344               	.LBB382:
 431:lib/lufa/LUFA/Drivers/USB/Core/AVR8/../AVR8/../AVR8/Endpoint_AVR8.h **** 			}
 2345               		.loc 2 431 0
 2346 00aa 8091 E800 		lds r24,232
 2347               	.LVL255:
 2348               	.LBE382:
 2349               	.LBE381:
  82:lib/lufa/LUFA/Drivers/USB/Core/AVR8/Template/Template_Endpoint_Control_W.c **** 		  return ENDPOINT_RWCSTREAM_HostAborted;
 2350               		.loc 4 82 0
 2351 00ae 83FD      		sbrc r24,3
 2352 00b0 00C0      		rjmp .L205
 2353               	.L211:
 2354               	.LBE380:
 2355               	.LBB383:
 2356               	.LBB384:
 419:lib/lufa/LUFA/Drivers/USB/Core/AVR8/../AVR8/../AVR8/Endpoint_AVR8.h **** 			}
 2357               		.loc 2 419 0
 2358 00b2 8091 E800 		lds r24,232
 2359               	.LBE384:
 2360               	.LBE383:
  74:lib/lufa/LUFA/Drivers/USB/Core/AVR8/Template/Template_Endpoint_Control_W.c **** 	{
 2361               		.loc 4 74 0
 2362 00b6 82FF      		sbrs r24,2
 2363 00b8 00C0      		rjmp .L198
  86:lib/lufa/LUFA/Drivers/USB/Core/AVR8/Template/Template_Endpoint_Control_W.c **** }
 2364               		.loc 4 86 0
 2365 00ba 80E0      		ldi r24,0
 2366 00bc 0895      		ret
 2367               	.L203:
 2368               	.LBB385:
  49:lib/lufa/LUFA/Drivers/USB/Core/AVR8/Template/Template_Endpoint_Control_W.c **** 		else if (USB_DeviceState_LCL == DEVICE_STATE_Suspended)
 2369               		.loc 4 49 0
 2370 00be 82E0      		ldi r24,lo8(2)
 2371 00c0 0895      		ret
 2372               	.L204:
  51:lib/lufa/LUFA/Drivers/USB/Core/AVR8/Template/Template_Endpoint_Control_W.c **** 		else if (Endpoint_IsSETUPReceived())
 2373               		.loc 4 51 0
 2374 00c2 83E0      		ldi r24,lo8(3)
 2375 00c4 0895      		ret
 2376               	.L205:
  53:lib/lufa/LUFA/Drivers/USB/Core/AVR8/Template/Template_Endpoint_Control_W.c **** 		else if (Endpoint_IsOUTReceived())
 2377               		.loc 4 53 0
 2378 00c6 81E0      		ldi r24,lo8(1)
 2379               	.LBE385:
 2380               		.loc 4 87 0
 2381 00c8 0895      		ret
 2382               		.cfi_endproc
 2383               	.LFE93:
 2385               		.section	.text.Endpoint_Read_Control_Stream_LE,"ax",@progbits
 2386               	.global	Endpoint_Read_Control_Stream_LE
 2388               	Endpoint_Read_Control_Stream_LE:
 2389               	.LFB94:
 2390               		.file 5 "lib/lufa/LUFA/Drivers/USB/Core/AVR8/Template/Template_Endpoint_Control_R.c"
   1:lib/lufa/LUFA/Drivers/USB/Core/AVR8/Template/Template_Endpoint_Control_R.c **** /*
   2:lib/lufa/LUFA/Drivers/USB/Core/AVR8/Template/Template_Endpoint_Control_R.c ****              LUFA Library
   3:lib/lufa/LUFA/Drivers/USB/Core/AVR8/Template/Template_Endpoint_Control_R.c ****      Copyright (C) Dean Camera, 2019.
   4:lib/lufa/LUFA/Drivers/USB/Core/AVR8/Template/Template_Endpoint_Control_R.c **** 
   5:lib/lufa/LUFA/Drivers/USB/Core/AVR8/Template/Template_Endpoint_Control_R.c ****   dean [at] fourwalledcubicle [dot] com
   6:lib/lufa/LUFA/Drivers/USB/Core/AVR8/Template/Template_Endpoint_Control_R.c ****            www.lufa-lib.org
   7:lib/lufa/LUFA/Drivers/USB/Core/AVR8/Template/Template_Endpoint_Control_R.c **** */
   8:lib/lufa/LUFA/Drivers/USB/Core/AVR8/Template/Template_Endpoint_Control_R.c **** 
   9:lib/lufa/LUFA/Drivers/USB/Core/AVR8/Template/Template_Endpoint_Control_R.c **** /*
  10:lib/lufa/LUFA/Drivers/USB/Core/AVR8/Template/Template_Endpoint_Control_R.c ****   Copyright 2019  Dean Camera (dean [at] fourwalledcubicle [dot] com)
  11:lib/lufa/LUFA/Drivers/USB/Core/AVR8/Template/Template_Endpoint_Control_R.c **** 
  12:lib/lufa/LUFA/Drivers/USB/Core/AVR8/Template/Template_Endpoint_Control_R.c ****   Permission to use, copy, modify, distribute, and sell this
  13:lib/lufa/LUFA/Drivers/USB/Core/AVR8/Template/Template_Endpoint_Control_R.c ****   software and its documentation for any purpose is hereby granted
  14:lib/lufa/LUFA/Drivers/USB/Core/AVR8/Template/Template_Endpoint_Control_R.c ****   without fee, provided that the above copyright notice appear in
  15:lib/lufa/LUFA/Drivers/USB/Core/AVR8/Template/Template_Endpoint_Control_R.c ****   all copies and that both that the copyright notice and this
  16:lib/lufa/LUFA/Drivers/USB/Core/AVR8/Template/Template_Endpoint_Control_R.c ****   permission notice and warranty disclaimer appear in supporting
  17:lib/lufa/LUFA/Drivers/USB/Core/AVR8/Template/Template_Endpoint_Control_R.c ****   documentation, and that the name of the author not be used in
  18:lib/lufa/LUFA/Drivers/USB/Core/AVR8/Template/Template_Endpoint_Control_R.c ****   advertising or publicity pertaining to distribution of the
  19:lib/lufa/LUFA/Drivers/USB/Core/AVR8/Template/Template_Endpoint_Control_R.c ****   software without specific, written prior permission.
  20:lib/lufa/LUFA/Drivers/USB/Core/AVR8/Template/Template_Endpoint_Control_R.c **** 
  21:lib/lufa/LUFA/Drivers/USB/Core/AVR8/Template/Template_Endpoint_Control_R.c ****   The author disclaims all warranties with regard to this
  22:lib/lufa/LUFA/Drivers/USB/Core/AVR8/Template/Template_Endpoint_Control_R.c ****   software, including all implied warranties of merchantability
  23:lib/lufa/LUFA/Drivers/USB/Core/AVR8/Template/Template_Endpoint_Control_R.c ****   and fitness.  In no event shall the author be liable for any
  24:lib/lufa/LUFA/Drivers/USB/Core/AVR8/Template/Template_Endpoint_Control_R.c ****   special, indirect or consequential damages or any damages
  25:lib/lufa/LUFA/Drivers/USB/Core/AVR8/Template/Template_Endpoint_Control_R.c ****   whatsoever resulting from loss of use, data or profits, whether
  26:lib/lufa/LUFA/Drivers/USB/Core/AVR8/Template/Template_Endpoint_Control_R.c ****   in an action of contract, negligence or other tortious action,
  27:lib/lufa/LUFA/Drivers/USB/Core/AVR8/Template/Template_Endpoint_Control_R.c ****   arising out of or in connection with the use or performance of
  28:lib/lufa/LUFA/Drivers/USB/Core/AVR8/Template/Template_Endpoint_Control_R.c ****   this software.
  29:lib/lufa/LUFA/Drivers/USB/Core/AVR8/Template/Template_Endpoint_Control_R.c **** */
  30:lib/lufa/LUFA/Drivers/USB/Core/AVR8/Template/Template_Endpoint_Control_R.c **** 
  31:lib/lufa/LUFA/Drivers/USB/Core/AVR8/Template/Template_Endpoint_Control_R.c **** #if defined(TEMPLATE_FUNC_NAME)
  32:lib/lufa/LUFA/Drivers/USB/Core/AVR8/Template/Template_Endpoint_Control_R.c **** 
  33:lib/lufa/LUFA/Drivers/USB/Core/AVR8/Template/Template_Endpoint_Control_R.c **** uint8_t TEMPLATE_FUNC_NAME (void* const Buffer,
  34:lib/lufa/LUFA/Drivers/USB/Core/AVR8/Template/Template_Endpoint_Control_R.c ****                             uint16_t Length)
  35:lib/lufa/LUFA/Drivers/USB/Core/AVR8/Template/Template_Endpoint_Control_R.c **** {
 2391               		.loc 5 35 0
 2392               		.cfi_startproc
 2393               	.LVL256:
 2394               	/* prologue: function */
 2395               	/* frame size = 0 */
 2396               	/* stack size = 0 */
 2397               	.L__stack_usage = 0
  36:lib/lufa/LUFA/Drivers/USB/Core/AVR8/Template/Template_Endpoint_Control_R.c **** 	uint8_t* DataStream = ((uint8_t*)Buffer + TEMPLATE_BUFFER_OFFSET(Length));
  37:lib/lufa/LUFA/Drivers/USB/Core/AVR8/Template/Template_Endpoint_Control_R.c **** 
  38:lib/lufa/LUFA/Drivers/USB/Core/AVR8/Template/Template_Endpoint_Control_R.c **** 	if (!(Length))
 2398               		.loc 5 38 0
 2399 0000 6115      		cp r22,__zero_reg__
 2400 0002 7105      		cpc r23,__zero_reg__
 2401 0004 01F4      		brne .L217
 2402               	.LBB386:
 2403               	.LBB387:
 471:lib/lufa/LUFA/Drivers/USB/Core/AVR8/../AVR8/../AVR8/Endpoint_AVR8.h **** 				#else
 2404               		.loc 2 471 0
 2405 0006 2091 E800 		lds r18,232
 2406 000a 2B77      		andi r18,lo8(123)
 2407 000c 2093 E800 		sts 232,r18
 2408               	.L217:
 2409               	.LBE387:
 2410               	.LBE386:
  35:lib/lufa/LUFA/Drivers/USB/Core/AVR8/Template/Template_Endpoint_Control_R.c **** 	uint8_t* DataStream = ((uint8_t*)Buffer + TEMPLATE_BUFFER_OFFSET(Length));
 2411               		.loc 5 35 0
 2412 0010 FC01      		movw r30,r24
 2413               	.LVL257:
 2414               	.L221:
  39:lib/lufa/LUFA/Drivers/USB/Core/AVR8/Template/Template_Endpoint_Control_R.c **** 	  Endpoint_ClearOUT();
  40:lib/lufa/LUFA/Drivers/USB/Core/AVR8/Template/Template_Endpoint_Control_R.c **** 
  41:lib/lufa/LUFA/Drivers/USB/Core/AVR8/Template/Template_Endpoint_Control_R.c **** 	while (Length)
 2415               		.loc 5 41 0
 2416 0012 6115      		cp r22,__zero_reg__
 2417 0014 7105      		cpc r23,__zero_reg__
 2418 0016 01F0      		breq .L226
 2419               	.LBB388:
  42:lib/lufa/LUFA/Drivers/USB/Core/AVR8/Template/Template_Endpoint_Control_R.c **** 	{
  43:lib/lufa/LUFA/Drivers/USB/Core/AVR8/Template/Template_Endpoint_Control_R.c **** 		uint8_t USB_DeviceState_LCL = USB_DeviceState;
 2420               		.loc 5 43 0
 2421 0018 8091 0000 		lds r24,USB_DeviceState
 2422               	.LVL258:
  44:lib/lufa/LUFA/Drivers/USB/Core/AVR8/Template/Template_Endpoint_Control_R.c **** 
  45:lib/lufa/LUFA/Drivers/USB/Core/AVR8/Template/Template_Endpoint_Control_R.c **** 		if (USB_DeviceState_LCL == DEVICE_STATE_Unattached)
 2423               		.loc 5 45 0
 2424 001c 8823      		tst r24
 2425 001e 01F0      		breq .L231
  46:lib/lufa/LUFA/Drivers/USB/Core/AVR8/Template/Template_Endpoint_Control_R.c **** 		  return ENDPOINT_RWCSTREAM_DeviceDisconnected;
  47:lib/lufa/LUFA/Drivers/USB/Core/AVR8/Template/Template_Endpoint_Control_R.c **** 		else if (USB_DeviceState_LCL == DEVICE_STATE_Suspended)
 2426               		.loc 5 47 0
 2427 0020 8530      		cpi r24,lo8(5)
 2428 0022 01F0      		breq .L232
 2429               	.LBB389:
 2430               	.LBB390:
 431:lib/lufa/LUFA/Drivers/USB/Core/AVR8/../AVR8/../AVR8/Endpoint_AVR8.h **** 			}
 2431               		.loc 2 431 0
 2432 0024 8091 E800 		lds r24,232
 2433               	.LVL259:
 2434               	.LBE390:
 2435               	.LBE389:
  48:lib/lufa/LUFA/Drivers/USB/Core/AVR8/Template/Template_Endpoint_Control_R.c **** 		  return ENDPOINT_RWCSTREAM_BusSuspended;
  49:lib/lufa/LUFA/Drivers/USB/Core/AVR8/Template/Template_Endpoint_Control_R.c **** 		else if (Endpoint_IsSETUPReceived())
 2436               		.loc 5 49 0
 2437 0028 83FD      		sbrc r24,3
 2438 002a 00C0      		rjmp .L230
 2439               	.LBB391:
 2440               	.LBB392:
 419:lib/lufa/LUFA/Drivers/USB/Core/AVR8/../AVR8/../AVR8/Endpoint_AVR8.h **** 			}
 2441               		.loc 2 419 0
 2442 002c 8091 E800 		lds r24,232
 2443               	.LBE392:
 2444               	.LBE391:
  50:lib/lufa/LUFA/Drivers/USB/Core/AVR8/Template/Template_Endpoint_Control_R.c **** 		  return ENDPOINT_RWCSTREAM_HostAborted;
  51:lib/lufa/LUFA/Drivers/USB/Core/AVR8/Template/Template_Endpoint_Control_R.c **** 
  52:lib/lufa/LUFA/Drivers/USB/Core/AVR8/Template/Template_Endpoint_Control_R.c **** 		if (Endpoint_IsOUTReceived())
 2445               		.loc 5 52 0
 2446 0030 82FF      		sbrs r24,2
 2447 0032 00C0      		rjmp .L221
 2448               	.L222:
 2449               	.LBB393:
 2450               	.LBB394:
 229:lib/lufa/LUFA/Drivers/USB/Core/AVR8/../AVR8/../AVR8/Endpoint_AVR8.h **** 				#endif
 2451               		.loc 2 229 0
 2452 0034 8091 F200 		lds r24,242
 2453               	.LBE394:
 2454               	.LBE393:
  53:lib/lufa/LUFA/Drivers/USB/Core/AVR8/Template/Template_Endpoint_Control_R.c **** 		{
  54:lib/lufa/LUFA/Drivers/USB/Core/AVR8/Template/Template_Endpoint_Control_R.c **** 			while (Length && Endpoint_BytesInEndpoint())
 2455               		.loc 5 54 0
 2456 0038 8823      		tst r24
 2457 003a 01F0      		breq .L223
 2458               	.LBB395:
 2459               	.LBB396:
 542:lib/lufa/LUFA/Drivers/USB/Core/AVR8/../AVR8/../AVR8/Endpoint_AVR8.h **** 			}
 2460               		.loc 2 542 0
 2461 003c 8091 F100 		lds r24,241
 2462               	.LBE396:
 2463               	.LBE395:
  55:lib/lufa/LUFA/Drivers/USB/Core/AVR8/Template/Template_Endpoint_Control_R.c **** 			{
  56:lib/lufa/LUFA/Drivers/USB/Core/AVR8/Template/Template_Endpoint_Control_R.c **** 				TEMPLATE_TRANSFER_BYTE(DataStream);
 2464               		.loc 5 56 0
 2465 0040 8193      		st Z+,r24
 2466               	.LVL260:
  57:lib/lufa/LUFA/Drivers/USB/Core/AVR8/Template/Template_Endpoint_Control_R.c **** 				TEMPLATE_BUFFER_MOVE(DataStream, 1);
  58:lib/lufa/LUFA/Drivers/USB/Core/AVR8/Template/Template_Endpoint_Control_R.c **** 				Length--;
 2467               		.loc 5 58 0
 2468 0042 6150      		subi r22,1
 2469 0044 7109      		sbc r23,__zero_reg__
 2470               	.LVL261:
  54:lib/lufa/LUFA/Drivers/USB/Core/AVR8/Template/Template_Endpoint_Control_R.c **** 			{
 2471               		.loc 5 54 0
 2472 0046 01F4      		brne .L222
 2473               	.L223:
 2474               	.LBB397:
 2475               	.LBB398:
 471:lib/lufa/LUFA/Drivers/USB/Core/AVR8/../AVR8/../AVR8/Endpoint_AVR8.h **** 				#else
 2476               		.loc 2 471 0
 2477 0048 8091 E800 		lds r24,232
 2478 004c 8B77      		andi r24,lo8(123)
 2479 004e 8093 E800 		sts 232,r24
 2480 0052 00C0      		rjmp .L221
 2481               	.L227:
 2482               	.LBE398:
 2483               	.LBE397:
 2484               	.LBE388:
 2485               	.LBB399:
  59:lib/lufa/LUFA/Drivers/USB/Core/AVR8/Template/Template_Endpoint_Control_R.c **** 			}
  60:lib/lufa/LUFA/Drivers/USB/Core/AVR8/Template/Template_Endpoint_Control_R.c **** 
  61:lib/lufa/LUFA/Drivers/USB/Core/AVR8/Template/Template_Endpoint_Control_R.c **** 			Endpoint_ClearOUT();
  62:lib/lufa/LUFA/Drivers/USB/Core/AVR8/Template/Template_Endpoint_Control_R.c **** 		}
  63:lib/lufa/LUFA/Drivers/USB/Core/AVR8/Template/Template_Endpoint_Control_R.c **** 	}
  64:lib/lufa/LUFA/Drivers/USB/Core/AVR8/Template/Template_Endpoint_Control_R.c **** 
  65:lib/lufa/LUFA/Drivers/USB/Core/AVR8/Template/Template_Endpoint_Control_R.c **** 	while (!(Endpoint_IsINReady()))
  66:lib/lufa/LUFA/Drivers/USB/Core/AVR8/Template/Template_Endpoint_Control_R.c **** 	{
  67:lib/lufa/LUFA/Drivers/USB/Core/AVR8/Template/Template_Endpoint_Control_R.c **** 		uint8_t USB_DeviceState_LCL = USB_DeviceState;
 2486               		.loc 5 67 0
 2487 0054 8091 0000 		lds r24,USB_DeviceState
 2488               	.LVL262:
  68:lib/lufa/LUFA/Drivers/USB/Core/AVR8/Template/Template_Endpoint_Control_R.c **** 
  69:lib/lufa/LUFA/Drivers/USB/Core/AVR8/Template/Template_Endpoint_Control_R.c **** 		if (USB_DeviceState_LCL == DEVICE_STATE_Unattached)
 2489               		.loc 5 69 0
 2490 0058 8823      		tst r24
 2491 005a 01F0      		breq .L231
  70:lib/lufa/LUFA/Drivers/USB/Core/AVR8/Template/Template_Endpoint_Control_R.c **** 		  return ENDPOINT_RWCSTREAM_DeviceDisconnected;
  71:lib/lufa/LUFA/Drivers/USB/Core/AVR8/Template/Template_Endpoint_Control_R.c **** 		else if (USB_DeviceState_LCL == DEVICE_STATE_Suspended)
 2492               		.loc 5 71 0
 2493 005c 8530      		cpi r24,lo8(5)
 2494 005e 01F0      		breq .L232
 2495               	.LVL263:
 2496               	.L226:
 2497               	.LBE399:
 2498               	.LBB400:
 2499               	.LBB401:
 407:lib/lufa/LUFA/Drivers/USB/Core/AVR8/../AVR8/../AVR8/Endpoint_AVR8.h **** 			}
 2500               		.loc 2 407 0
 2501 0060 8091 E800 		lds r24,232
 2502               	.LBE401:
 2503               	.LBE400:
  65:lib/lufa/LUFA/Drivers/USB/Core/AVR8/Template/Template_Endpoint_Control_R.c **** 	{
 2504               		.loc 5 65 0
 2505 0064 80FF      		sbrs r24,0
 2506 0066 00C0      		rjmp .L227
  72:lib/lufa/LUFA/Drivers/USB/Core/AVR8/Template/Template_Endpoint_Control_R.c **** 		  return ENDPOINT_RWCSTREAM_BusSuspended;
  73:lib/lufa/LUFA/Drivers/USB/Core/AVR8/Template/Template_Endpoint_Control_R.c **** 	}
  74:lib/lufa/LUFA/Drivers/USB/Core/AVR8/Template/Template_Endpoint_Control_R.c **** 
  75:lib/lufa/LUFA/Drivers/USB/Core/AVR8/Template/Template_Endpoint_Control_R.c **** 	return ENDPOINT_RWCSTREAM_NoError;
 2507               		.loc 5 75 0
 2508 0068 80E0      		ldi r24,0
 2509 006a 0895      		ret
 2510               	.L230:
 2511               	.LBB402:
  50:lib/lufa/LUFA/Drivers/USB/Core/AVR8/Template/Template_Endpoint_Control_R.c **** 
 2512               		.loc 5 50 0
 2513 006c 81E0      		ldi r24,lo8(1)
 2514 006e 0895      		ret
 2515               	.L231:
  46:lib/lufa/LUFA/Drivers/USB/Core/AVR8/Template/Template_Endpoint_Control_R.c **** 		else if (USB_DeviceState_LCL == DEVICE_STATE_Suspended)
 2516               		.loc 5 46 0
 2517 0070 82E0      		ldi r24,lo8(2)
 2518 0072 0895      		ret
 2519               	.L232:
  48:lib/lufa/LUFA/Drivers/USB/Core/AVR8/Template/Template_Endpoint_Control_R.c **** 		else if (Endpoint_IsSETUPReceived())
 2520               		.loc 5 48 0
 2521 0074 83E0      		ldi r24,lo8(3)
 2522               	.LBE402:
  76:lib/lufa/LUFA/Drivers/USB/Core/AVR8/Template/Template_Endpoint_Control_R.c **** }
 2523               		.loc 5 76 0
 2524 0076 0895      		ret
 2525               		.cfi_endproc
 2526               	.LFE94:
 2528               		.section	.text.Endpoint_Read_Control_Stream_BE,"ax",@progbits
 2529               	.global	Endpoint_Read_Control_Stream_BE
 2531               	Endpoint_Read_Control_Stream_BE:
 2532               	.LFB95:
  35:lib/lufa/LUFA/Drivers/USB/Core/AVR8/Template/Template_Endpoint_Control_R.c **** 	uint8_t* DataStream = ((uint8_t*)Buffer + TEMPLATE_BUFFER_OFFSET(Length));
 2533               		.loc 5 35 0
 2534               		.cfi_startproc
 2535               	.LVL264:
 2536               	/* prologue: function */
 2537               	/* frame size = 0 */
 2538               	/* stack size = 0 */
 2539               	.L__stack_usage = 0
  36:lib/lufa/LUFA/Drivers/USB/Core/AVR8/Template/Template_Endpoint_Control_R.c **** 
 2540               		.loc 5 36 0
 2541 0000 9B01      		movw r18,r22
 2542 0002 2150      		subi r18,1
 2543 0004 3109      		sbc r19,__zero_reg__
 2544 0006 820F      		add r24,r18
 2545 0008 931F      		adc r25,r19
 2546               	.LVL265:
  38:lib/lufa/LUFA/Drivers/USB/Core/AVR8/Template/Template_Endpoint_Control_R.c **** 	  Endpoint_ClearOUT();
 2547               		.loc 5 38 0
 2548 000a 6115      		cp r22,__zero_reg__
 2549 000c 7105      		cpc r23,__zero_reg__
 2550 000e 01F4      		brne .L239
 2551               	.L241:
 2552               	.LBB403:
 2553               	.LBB404:
 2554               	.LBB405:
 471:lib/lufa/LUFA/Drivers/USB/Core/AVR8/../AVR8/../AVR8/Endpoint_AVR8.h **** 				#else
 2555               		.loc 2 471 0
 2556 0010 2091 E800 		lds r18,232
 2557 0014 2B77      		andi r18,lo8(123)
 2558 0016 2093 E800 		sts 232,r18
 2559               	.L239:
 2560               	.LBE405:
 2561               	.LBE404:
 2562               	.LBE403:
  41:lib/lufa/LUFA/Drivers/USB/Core/AVR8/Template/Template_Endpoint_Control_R.c **** 	{
 2563               		.loc 5 41 0
 2564 001a 6115      		cp r22,__zero_reg__
 2565 001c 7105      		cpc r23,__zero_reg__
 2566 001e 01F0      		breq .L244
 2567               	.LBB414:
  43:lib/lufa/LUFA/Drivers/USB/Core/AVR8/Template/Template_Endpoint_Control_R.c **** 
 2568               		.loc 5 43 0
 2569 0020 2091 0000 		lds r18,USB_DeviceState
 2570               	.LVL266:
  45:lib/lufa/LUFA/Drivers/USB/Core/AVR8/Template/Template_Endpoint_Control_R.c **** 		  return ENDPOINT_RWCSTREAM_DeviceDisconnected;
 2571               		.loc 5 45 0
 2572 0024 2223      		tst r18
 2573 0026 01F0      		breq .L249
  47:lib/lufa/LUFA/Drivers/USB/Core/AVR8/Template/Template_Endpoint_Control_R.c **** 		  return ENDPOINT_RWCSTREAM_BusSuspended;
 2574               		.loc 5 47 0
 2575 0028 2530      		cpi r18,lo8(5)
 2576 002a 01F0      		breq .L250
 2577               	.LBB406:
 2578               	.LBB407:
 431:lib/lufa/LUFA/Drivers/USB/Core/AVR8/../AVR8/../AVR8/Endpoint_AVR8.h **** 			}
 2579               		.loc 2 431 0
 2580 002c 2091 E800 		lds r18,232
 2581               	.LVL267:
 2582               	.LBE407:
 2583               	.LBE406:
  49:lib/lufa/LUFA/Drivers/USB/Core/AVR8/Template/Template_Endpoint_Control_R.c **** 		  return ENDPOINT_RWCSTREAM_HostAborted;
 2584               		.loc 5 49 0
 2585 0030 23FD      		sbrc r18,3
 2586 0032 00C0      		rjmp .L248
 2587               	.LBB408:
 2588               	.LBB409:
 419:lib/lufa/LUFA/Drivers/USB/Core/AVR8/../AVR8/../AVR8/Endpoint_AVR8.h **** 			}
 2589               		.loc 2 419 0
 2590 0034 2091 E800 		lds r18,232
 2591               	.LBE409:
 2592               	.LBE408:
  52:lib/lufa/LUFA/Drivers/USB/Core/AVR8/Template/Template_Endpoint_Control_R.c **** 		{
 2593               		.loc 5 52 0
 2594 0038 22FF      		sbrs r18,2
 2595 003a 00C0      		rjmp .L239
 2596               	.L240:
 2597               	.LBB410:
 2598               	.LBB411:
 229:lib/lufa/LUFA/Drivers/USB/Core/AVR8/../AVR8/../AVR8/Endpoint_AVR8.h **** 				#endif
 2599               		.loc 2 229 0
 2600 003c 2091 F200 		lds r18,242
 2601               	.LBE411:
 2602               	.LBE410:
  54:lib/lufa/LUFA/Drivers/USB/Core/AVR8/Template/Template_Endpoint_Control_R.c **** 			{
 2603               		.loc 5 54 0
 2604 0040 2223      		tst r18
 2605 0042 01F0      		breq .L241
 2606               	.LBB412:
 2607               	.LBB413:
 542:lib/lufa/LUFA/Drivers/USB/Core/AVR8/../AVR8/../AVR8/Endpoint_AVR8.h **** 			}
 2608               		.loc 2 542 0
 2609 0044 2091 F100 		lds r18,241
 2610               	.LBE413:
 2611               	.LBE412:
  56:lib/lufa/LUFA/Drivers/USB/Core/AVR8/Template/Template_Endpoint_Control_R.c **** 				TEMPLATE_BUFFER_MOVE(DataStream, 1);
 2612               		.loc 5 56 0
 2613 0048 FC01      		movw r30,r24
 2614 004a 2083      		st Z,r18
  57:lib/lufa/LUFA/Drivers/USB/Core/AVR8/Template/Template_Endpoint_Control_R.c **** 				Length--;
 2615               		.loc 5 57 0
 2616 004c 0197      		sbiw r24,1
 2617               	.LVL268:
  58:lib/lufa/LUFA/Drivers/USB/Core/AVR8/Template/Template_Endpoint_Control_R.c **** 			}
 2618               		.loc 5 58 0
 2619 004e 6150      		subi r22,1
 2620 0050 7109      		sbc r23,__zero_reg__
 2621               	.LVL269:
  54:lib/lufa/LUFA/Drivers/USB/Core/AVR8/Template/Template_Endpoint_Control_R.c **** 			{
 2622               		.loc 5 54 0
 2623 0052 01F4      		brne .L240
 2624 0054 00C0      		rjmp .L241
 2625               	.LVL270:
 2626               	.L245:
 2627               	.LBE414:
 2628               	.LBB415:
  67:lib/lufa/LUFA/Drivers/USB/Core/AVR8/Template/Template_Endpoint_Control_R.c **** 
 2629               		.loc 5 67 0
 2630 0056 8091 0000 		lds r24,USB_DeviceState
 2631               	.LVL271:
  69:lib/lufa/LUFA/Drivers/USB/Core/AVR8/Template/Template_Endpoint_Control_R.c **** 		  return ENDPOINT_RWCSTREAM_DeviceDisconnected;
 2632               		.loc 5 69 0
 2633 005a 8823      		tst r24
 2634 005c 01F0      		breq .L249
  71:lib/lufa/LUFA/Drivers/USB/Core/AVR8/Template/Template_Endpoint_Control_R.c **** 		  return ENDPOINT_RWCSTREAM_BusSuspended;
 2635               		.loc 5 71 0
 2636 005e 8530      		cpi r24,lo8(5)
 2637 0060 01F0      		breq .L250
 2638               	.LVL272:
 2639               	.L244:
 2640               	.LBE415:
 2641               	.LBB416:
 2642               	.LBB417:
 407:lib/lufa/LUFA/Drivers/USB/Core/AVR8/../AVR8/../AVR8/Endpoint_AVR8.h **** 			}
 2643               		.loc 2 407 0
 2644 0062 8091 E800 		lds r24,232
 2645               	.LBE417:
 2646               	.LBE416:
  65:lib/lufa/LUFA/Drivers/USB/Core/AVR8/Template/Template_Endpoint_Control_R.c **** 	{
 2647               		.loc 5 65 0
 2648 0066 80FF      		sbrs r24,0
 2649 0068 00C0      		rjmp .L245
  75:lib/lufa/LUFA/Drivers/USB/Core/AVR8/Template/Template_Endpoint_Control_R.c **** }
 2650               		.loc 5 75 0
 2651 006a 80E0      		ldi r24,0
 2652 006c 0895      		ret
 2653               	.LVL273:
 2654               	.L248:
 2655               	.LBB418:
  50:lib/lufa/LUFA/Drivers/USB/Core/AVR8/Template/Template_Endpoint_Control_R.c **** 
 2656               		.loc 5 50 0
 2657 006e 81E0      		ldi r24,lo8(1)
 2658               	.LVL274:
 2659 0070 0895      		ret
 2660               	.L249:
  46:lib/lufa/LUFA/Drivers/USB/Core/AVR8/Template/Template_Endpoint_Control_R.c **** 		else if (USB_DeviceState_LCL == DEVICE_STATE_Suspended)
 2661               		.loc 5 46 0
 2662 0072 82E0      		ldi r24,lo8(2)
 2663 0074 0895      		ret
 2664               	.L250:
  48:lib/lufa/LUFA/Drivers/USB/Core/AVR8/Template/Template_Endpoint_Control_R.c **** 		else if (Endpoint_IsSETUPReceived())
 2665               		.loc 5 48 0
 2666 0076 83E0      		ldi r24,lo8(3)
 2667               	.LBE418:
 2668               		.loc 5 76 0
 2669 0078 0895      		ret
 2670               		.cfi_endproc
 2671               	.LFE95:
 2673               		.section	.text.Endpoint_Write_Control_PStream_LE,"ax",@progbits
 2674               	.global	Endpoint_Write_Control_PStream_LE
 2676               	Endpoint_Write_Control_PStream_LE:
 2677               	.LFB96:
  35:lib/lufa/LUFA/Drivers/USB/Core/AVR8/Template/Template_Endpoint_Control_W.c **** 	uint8_t* DataStream     = ((uint8_t*)Buffer + TEMPLATE_BUFFER_OFFSET(Length));
 2678               		.loc 4 35 0
 2679               		.cfi_startproc
 2680               	.LVL275:
 2681               	/* prologue: function */
 2682               	/* frame size = 0 */
 2683               	/* stack size = 0 */
 2684               	.L__stack_usage = 0
  39:lib/lufa/LUFA/Drivers/USB/Core/AVR8/Template/Template_Endpoint_Control_W.c **** 	  Length = USB_ControlRequest.wLength;
 2685               		.loc 4 39 0
 2686 0000 2091 0000 		lds r18,USB_ControlRequest+6
 2687 0004 3091 0000 		lds r19,USB_ControlRequest+6+1
 2688 0008 2617      		cp r18,r22
 2689 000a 3707      		cpc r19,r23
 2690 000c 00F0      		brlo .L264
  41:lib/lufa/LUFA/Drivers/USB/Core/AVR8/Template/Template_Endpoint_Control_W.c **** 	  Endpoint_ClearIN();
 2691               		.loc 4 41 0
 2692 000e 6115      		cp r22,__zero_reg__
 2693 0010 7105      		cpc r23,__zero_reg__
 2694 0012 01F4      		brne .L253
 2695               	.LBB419:
 2696               	.LBB420:
 456:lib/lufa/LUFA/Drivers/USB/Core/AVR8/../AVR8/../AVR8/Endpoint_AVR8.h **** 				#else
 2697               		.loc 2 456 0
 2698 0014 2091 E800 		lds r18,232
 2699 0018 2E77      		andi r18,lo8(126)
 2700 001a 2093 E800 		sts 232,r18
 2701 001e 00C0      		rjmp .L253
 2702               	.L264:
 2703               	.LBE420:
 2704               	.LBE419:
 2705 0020 B901      		movw r22,r18
 2706               	.LVL276:
 2707               	.L253:
 2708 0022 FC01      		movw r30,r24
 2709 0024 20E0      		ldi r18,0
 2710               	.LVL277:
 2711               	.L257:
  44:lib/lufa/LUFA/Drivers/USB/Core/AVR8/Template/Template_Endpoint_Control_W.c **** 	{
 2712               		.loc 4 44 0
 2713 0026 6115      		cp r22,__zero_reg__
 2714 0028 7105      		cpc r23,__zero_reg__
 2715 002a 01F0      		breq .L280
 2716               	.L262:
 2717               	.LBB421:
  46:lib/lufa/LUFA/Drivers/USB/Core/AVR8/Template/Template_Endpoint_Control_W.c **** 
 2718               		.loc 4 46 0
 2719 002c 8091 0000 		lds r24,USB_DeviceState
 2720               	.LVL278:
  48:lib/lufa/LUFA/Drivers/USB/Core/AVR8/Template/Template_Endpoint_Control_W.c **** 		  return ENDPOINT_RWCSTREAM_DeviceDisconnected;
 2721               		.loc 4 48 0
 2722 0030 8823      		tst r24
 2723 0032 01F4      		brne .+2
 2724 0034 00C0      		rjmp .L268
  50:lib/lufa/LUFA/Drivers/USB/Core/AVR8/Template/Template_Endpoint_Control_W.c **** 		  return ENDPOINT_RWCSTREAM_BusSuspended;
 2725               		.loc 4 50 0
 2726 0036 8530      		cpi r24,lo8(5)
 2727 0038 01F4      		brne .+2
 2728 003a 00C0      		rjmp .L269
 2729               	.LBB422:
 2730               	.LBB423:
 431:lib/lufa/LUFA/Drivers/USB/Core/AVR8/../AVR8/../AVR8/Endpoint_AVR8.h **** 			}
 2731               		.loc 2 431 0
 2732 003c 8091 E800 		lds r24,232
 2733               	.LVL279:
 2734               	.LBE423:
 2735               	.LBE422:
  52:lib/lufa/LUFA/Drivers/USB/Core/AVR8/Template/Template_Endpoint_Control_W.c **** 		  return ENDPOINT_RWCSTREAM_HostAborted;
 2736               		.loc 4 52 0
 2737 0040 83FD      		sbrc r24,3
 2738 0042 00C0      		rjmp .L270
 2739               	.LBB424:
 2740               	.LBB425:
 419:lib/lufa/LUFA/Drivers/USB/Core/AVR8/../AVR8/../AVR8/Endpoint_AVR8.h **** 			}
 2741               		.loc 2 419 0
 2742 0044 8091 E800 		lds r24,232
 2743               	.LBE425:
 2744               	.LBE424:
  54:lib/lufa/LUFA/Drivers/USB/Core/AVR8/Template/Template_Endpoint_Control_W.c **** 		  break;
 2745               		.loc 4 54 0
 2746 0048 82FD      		sbrc r24,2
 2747 004a 00C0      		rjmp .L276
 2748               	.LBB426:
 2749               	.LBB427:
 407:lib/lufa/LUFA/Drivers/USB/Core/AVR8/../AVR8/../AVR8/Endpoint_AVR8.h **** 			}
 2750               		.loc 2 407 0
 2751 004c 8091 E800 		lds r24,232
 2752               	.LBE427:
 2753               	.LBE426:
  57:lib/lufa/LUFA/Drivers/USB/Core/AVR8/Template/Template_Endpoint_Control_W.c **** 		{
 2754               		.loc 4 57 0
 2755 0050 80FF      		sbrs r24,0
 2756 0052 00C0      		rjmp .L257
 2757               	.LBB428:
 2758               	.LBB429:
 2759               	.LBB430:
 229:lib/lufa/LUFA/Drivers/USB/Core/AVR8/../AVR8/../AVR8/Endpoint_AVR8.h **** 				#endif
 2760               		.loc 2 229 0
 2761 0054 8091 F200 		lds r24,242
 2762 0058 90E0      		ldi r25,0
 2763               	.LVL280:
 2764               	.L258:
 2765               	.LBE430:
 2766               	.LBE429:
  61:lib/lufa/LUFA/Drivers/USB/Core/AVR8/Template/Template_Endpoint_Control_W.c **** 			{
 2767               		.loc 4 61 0
 2768 005a 6115      		cp r22,__zero_reg__
 2769 005c 7105      		cpc r23,__zero_reg__
 2770 005e 01F0      		breq .L259
  61:lib/lufa/LUFA/Drivers/USB/Core/AVR8/Template/Template_Endpoint_Control_W.c **** 			{
 2771               		.loc 4 61 0 is_stmt 0 discriminator 1
 2772 0060 8830      		cpi r24,8
 2773 0062 9105      		cpc r25,__zero_reg__
 2774 0064 00F4      		brsh .L259
 2775               	.LVL281:
 2776               	.LBB431:
  63:lib/lufa/LUFA/Drivers/USB/Core/AVR8/Template/Template_Endpoint_Control_W.c **** 				TEMPLATE_BUFFER_MOVE(DataStream, 1);
 2777               		.loc 4 63 0 is_stmt 1
 2778               	/* #APP */
 2779               	 ;  63 "lib/lufa/LUFA/Drivers/USB/Core/AVR8/Template/Template_Endpoint_Control_W.c" 1
 2780 0066 2491      		lpm r18, Z
 2781               		
 2782               	 ;  0 "" 2
 2783               	.LVL282:
 2784               	/* #NOAPP */
 2785               	.LBE431:
 2786               	.LBB432:
 2787               	.LBB433:
 554:lib/lufa/LUFA/Drivers/USB/Core/AVR8/../AVR8/../AVR8/Endpoint_AVR8.h **** 			}
 2788               		.loc 2 554 0
 2789 0068 2093 F100 		sts 241,r18
 2790               	.LVL283:
 2791               	.LBE433:
 2792               	.LBE432:
  64:lib/lufa/LUFA/Drivers/USB/Core/AVR8/Template/Template_Endpoint_Control_W.c **** 				Length--;
 2793               		.loc 4 64 0
 2794 006c 3196      		adiw r30,1
 2795               	.LVL284:
  65:lib/lufa/LUFA/Drivers/USB/Core/AVR8/Template/Template_Endpoint_Control_W.c **** 				BytesInEndpoint++;
 2796               		.loc 4 65 0
 2797 006e 6150      		subi r22,1
 2798 0070 7109      		sbc r23,__zero_reg__
 2799               	.LVL285:
  66:lib/lufa/LUFA/Drivers/USB/Core/AVR8/Template/Template_Endpoint_Control_W.c **** 			}
 2800               		.loc 4 66 0
 2801 0072 0196      		adiw r24,1
 2802               	.LVL286:
 2803 0074 00C0      		rjmp .L258
 2804               	.LVL287:
 2805               	.L259:
  69:lib/lufa/LUFA/Drivers/USB/Core/AVR8/Template/Template_Endpoint_Control_W.c **** 			Endpoint_ClearIN();
 2806               		.loc 4 69 0
 2807 0076 21E0      		ldi r18,lo8(1)
 2808 0078 0897      		sbiw r24,8
 2809 007a 01F0      		breq .L261
 2810 007c 20E0      		ldi r18,0
 2811               	.L261:
 2812               	.LVL288:
 2813               	.LBB434:
 2814               	.LBB435:
 456:lib/lufa/LUFA/Drivers/USB/Core/AVR8/../AVR8/../AVR8/Endpoint_AVR8.h **** 				#else
 2815               		.loc 2 456 0
 2816 007e 8091 E800 		lds r24,232
 2817               	.LVL289:
 2818 0082 8E77      		andi r24,lo8(126)
 2819 0084 8093 E800 		sts 232,r24
 2820 0088 00C0      		rjmp .L257
 2821               	.L280:
 2822               	.LBE435:
 2823               	.LBE434:
 2824               	.LBE428:
 2825               	.LBE421:
  44:lib/lufa/LUFA/Drivers/USB/Core/AVR8/Template/Template_Endpoint_Control_W.c **** 	{
 2826               		.loc 4 44 0 discriminator 1
 2827 008a 2111      		cpse r18,__zero_reg__
 2828 008c 00C0      		rjmp .L262
 2829 008e 00C0      		rjmp .L276
 2830               	.L263:
 2831               	.LBB436:
  76:lib/lufa/LUFA/Drivers/USB/Core/AVR8/Template/Template_Endpoint_Control_W.c **** 
 2832               		.loc 4 76 0
 2833 0090 8091 0000 		lds r24,USB_DeviceState
 2834               	.LVL290:
  78:lib/lufa/LUFA/Drivers/USB/Core/AVR8/Template/Template_Endpoint_Control_W.c **** 		  return ENDPOINT_RWCSTREAM_DeviceDisconnected;
 2835               		.loc 4 78 0
 2836 0094 8823      		tst r24
 2837 0096 01F0      		breq .L268
  80:lib/lufa/LUFA/Drivers/USB/Core/AVR8/Template/Template_Endpoint_Control_W.c **** 		  return ENDPOINT_RWCSTREAM_BusSuspended;
 2838               		.loc 4 80 0
 2839 0098 8530      		cpi r24,lo8(5)
 2840 009a 01F0      		breq .L269
 2841               	.LBB437:
 2842               	.LBB438:
 431:lib/lufa/LUFA/Drivers/USB/Core/AVR8/../AVR8/../AVR8/Endpoint_AVR8.h **** 			}
 2843               		.loc 2 431 0
 2844 009c 8091 E800 		lds r24,232
 2845               	.LVL291:
 2846               	.LBE438:
 2847               	.LBE437:
  82:lib/lufa/LUFA/Drivers/USB/Core/AVR8/Template/Template_Endpoint_Control_W.c **** 		  return ENDPOINT_RWCSTREAM_HostAborted;
 2848               		.loc 4 82 0
 2849 00a0 83FD      		sbrc r24,3
 2850 00a2 00C0      		rjmp .L270
 2851               	.L276:
 2852               	.LBE436:
 2853               	.LBB439:
 2854               	.LBB440:
 419:lib/lufa/LUFA/Drivers/USB/Core/AVR8/../AVR8/../AVR8/Endpoint_AVR8.h **** 			}
 2855               		.loc 2 419 0
 2856 00a4 8091 E800 		lds r24,232
 2857               	.LBE440:
 2858               	.LBE439:
  74:lib/lufa/LUFA/Drivers/USB/Core/AVR8/Template/Template_Endpoint_Control_W.c **** 	{
 2859               		.loc 4 74 0
 2860 00a8 82FF      		sbrs r24,2
 2861 00aa 00C0      		rjmp .L263
  86:lib/lufa/LUFA/Drivers/USB/Core/AVR8/Template/Template_Endpoint_Control_W.c **** }
 2862               		.loc 4 86 0
 2863 00ac 80E0      		ldi r24,0
 2864 00ae 0895      		ret
 2865               	.L268:
 2866               	.LBB441:
  49:lib/lufa/LUFA/Drivers/USB/Core/AVR8/Template/Template_Endpoint_Control_W.c **** 		else if (USB_DeviceState_LCL == DEVICE_STATE_Suspended)
 2867               		.loc 4 49 0
 2868 00b0 82E0      		ldi r24,lo8(2)
 2869 00b2 0895      		ret
 2870               	.L269:
  51:lib/lufa/LUFA/Drivers/USB/Core/AVR8/Template/Template_Endpoint_Control_W.c **** 		else if (Endpoint_IsSETUPReceived())
 2871               		.loc 4 51 0
 2872 00b4 83E0      		ldi r24,lo8(3)
 2873 00b6 0895      		ret
 2874               	.L270:
  53:lib/lufa/LUFA/Drivers/USB/Core/AVR8/Template/Template_Endpoint_Control_W.c **** 		else if (Endpoint_IsOUTReceived())
 2875               		.loc 4 53 0
 2876 00b8 81E0      		ldi r24,lo8(1)
 2877               	.LBE441:
 2878               		.loc 4 87 0
 2879 00ba 0895      		ret
 2880               		.cfi_endproc
 2881               	.LFE96:
 2883               		.section	.text.Endpoint_Write_Control_PStream_BE,"ax",@progbits
 2884               	.global	Endpoint_Write_Control_PStream_BE
 2886               	Endpoint_Write_Control_PStream_BE:
 2887               	.LFB97:
  35:lib/lufa/LUFA/Drivers/USB/Core/AVR8/Template/Template_Endpoint_Control_W.c **** 	uint8_t* DataStream     = ((uint8_t*)Buffer + TEMPLATE_BUFFER_OFFSET(Length));
 2888               		.loc 4 35 0
 2889               		.cfi_startproc
 2890               	.LVL292:
 2891               	/* prologue: function */
 2892               	/* frame size = 0 */
 2893               	/* stack size = 0 */
 2894               	.L__stack_usage = 0
  36:lib/lufa/LUFA/Drivers/USB/Core/AVR8/Template/Template_Endpoint_Control_W.c **** 	bool     LastPacketFull = false;
 2895               		.loc 4 36 0
 2896 0000 FB01      		movw r30,r22
 2897 0002 3197      		sbiw r30,1
 2898 0004 8E0F      		add r24,r30
 2899 0006 9F1F      		adc r25,r31
 2900               	.LVL293:
  39:lib/lufa/LUFA/Drivers/USB/Core/AVR8/Template/Template_Endpoint_Control_W.c **** 	  Length = USB_ControlRequest.wLength;
 2901               		.loc 4 39 0
 2902 0008 2091 0000 		lds r18,USB_ControlRequest+6
 2903 000c 3091 0000 		lds r19,USB_ControlRequest+6+1
 2904 0010 2617      		cp r18,r22
 2905 0012 3707      		cpc r19,r23
 2906 0014 00F0      		brlo .L293
  41:lib/lufa/LUFA/Drivers/USB/Core/AVR8/Template/Template_Endpoint_Control_W.c **** 	  Endpoint_ClearIN();
 2907               		.loc 4 41 0
 2908 0016 6115      		cp r22,__zero_reg__
 2909 0018 7105      		cpc r23,__zero_reg__
 2910 001a 01F4      		brne .L282
 2911               	.LBB442:
 2912               	.LBB443:
 456:lib/lufa/LUFA/Drivers/USB/Core/AVR8/../AVR8/../AVR8/Endpoint_AVR8.h **** 				#else
 2913               		.loc 2 456 0
 2914 001c 2091 E800 		lds r18,232
 2915 0020 2E77      		andi r18,lo8(126)
 2916 0022 2093 E800 		sts 232,r18
 2917 0026 00C0      		rjmp .L282
 2918               	.L293:
 2919               	.LBE443:
 2920               	.LBE442:
 2921 0028 B901      		movw r22,r18
 2922               	.LVL294:
 2923               	.L282:
 2924 002a 40E0      		ldi r20,0
 2925               	.LVL295:
 2926               	.L286:
  44:lib/lufa/LUFA/Drivers/USB/Core/AVR8/Template/Template_Endpoint_Control_W.c **** 	{
 2927               		.loc 4 44 0
 2928 002c 6115      		cp r22,__zero_reg__
 2929 002e 7105      		cpc r23,__zero_reg__
 2930 0030 01F0      		breq .L309
 2931               	.L291:
 2932               	.LBB444:
  46:lib/lufa/LUFA/Drivers/USB/Core/AVR8/Template/Template_Endpoint_Control_W.c **** 
 2933               		.loc 4 46 0
 2934 0032 2091 0000 		lds r18,USB_DeviceState
 2935               	.LVL296:
  48:lib/lufa/LUFA/Drivers/USB/Core/AVR8/Template/Template_Endpoint_Control_W.c **** 		  return ENDPOINT_RWCSTREAM_DeviceDisconnected;
 2936               		.loc 4 48 0
 2937 0036 2223      		tst r18
 2938 0038 01F4      		brne .+2
 2939 003a 00C0      		rjmp .L297
  50:lib/lufa/LUFA/Drivers/USB/Core/AVR8/Template/Template_Endpoint_Control_W.c **** 		  return ENDPOINT_RWCSTREAM_BusSuspended;
 2940               		.loc 4 50 0
 2941 003c 2530      		cpi r18,lo8(5)
 2942 003e 01F4      		brne .+2
 2943 0040 00C0      		rjmp .L298
 2944               	.LBB445:
 2945               	.LBB446:
 431:lib/lufa/LUFA/Drivers/USB/Core/AVR8/../AVR8/../AVR8/Endpoint_AVR8.h **** 			}
 2946               		.loc 2 431 0
 2947 0042 2091 E800 		lds r18,232
 2948               	.LVL297:
 2949               	.LBE446:
 2950               	.LBE445:
  52:lib/lufa/LUFA/Drivers/USB/Core/AVR8/Template/Template_Endpoint_Control_W.c **** 		  return ENDPOINT_RWCSTREAM_HostAborted;
 2951               		.loc 4 52 0
 2952 0046 23FD      		sbrc r18,3
 2953 0048 00C0      		rjmp .L299
 2954               	.LBB447:
 2955               	.LBB448:
 419:lib/lufa/LUFA/Drivers/USB/Core/AVR8/../AVR8/../AVR8/Endpoint_AVR8.h **** 			}
 2956               		.loc 2 419 0
 2957 004a 2091 E800 		lds r18,232
 2958               	.LBE448:
 2959               	.LBE447:
  54:lib/lufa/LUFA/Drivers/USB/Core/AVR8/Template/Template_Endpoint_Control_W.c **** 		  break;
 2960               		.loc 4 54 0
 2961 004e 22FD      		sbrc r18,2
 2962 0050 00C0      		rjmp .L305
 2963               	.LBB449:
 2964               	.LBB450:
 407:lib/lufa/LUFA/Drivers/USB/Core/AVR8/../AVR8/../AVR8/Endpoint_AVR8.h **** 			}
 2965               		.loc 2 407 0
 2966 0052 2091 E800 		lds r18,232
 2967               	.LBE450:
 2968               	.LBE449:
  57:lib/lufa/LUFA/Drivers/USB/Core/AVR8/Template/Template_Endpoint_Control_W.c **** 		{
 2969               		.loc 4 57 0
 2970 0056 20FF      		sbrs r18,0
 2971 0058 00C0      		rjmp .L286
 2972               	.LBB451:
 2973               	.LBB452:
 2974               	.LBB453:
 229:lib/lufa/LUFA/Drivers/USB/Core/AVR8/../AVR8/../AVR8/Endpoint_AVR8.h **** 				#endif
 2975               		.loc 2 229 0
 2976 005a 2091 F200 		lds r18,242
 2977 005e 30E0      		ldi r19,0
 2978               	.LVL298:
 2979               	.L287:
 2980               	.LBE453:
 2981               	.LBE452:
  61:lib/lufa/LUFA/Drivers/USB/Core/AVR8/Template/Template_Endpoint_Control_W.c **** 			{
 2982               		.loc 4 61 0
 2983 0060 6115      		cp r22,__zero_reg__
 2984 0062 7105      		cpc r23,__zero_reg__
 2985 0064 01F0      		breq .L288
  61:lib/lufa/LUFA/Drivers/USB/Core/AVR8/Template/Template_Endpoint_Control_W.c **** 			{
 2986               		.loc 4 61 0 is_stmt 0 discriminator 1
 2987 0066 2830      		cpi r18,8
 2988 0068 3105      		cpc r19,__zero_reg__
 2989 006a 00F4      		brsh .L288
 2990               	.LVL299:
 2991               	.LBB454:
  63:lib/lufa/LUFA/Drivers/USB/Core/AVR8/Template/Template_Endpoint_Control_W.c **** 				TEMPLATE_BUFFER_MOVE(DataStream, 1);
 2992               		.loc 4 63 0 is_stmt 1
 2993 006c FC01      		movw r30,r24
 2994               	/* #APP */
 2995               	 ;  63 "lib/lufa/LUFA/Drivers/USB/Core/AVR8/Template/Template_Endpoint_Control_W.c" 1
 2996 006e 4491      		lpm r20, Z
 2997               		
 2998               	 ;  0 "" 2
 2999               	.LVL300:
 3000               	/* #NOAPP */
 3001               	.LBE454:
 3002               	.LBB455:
 3003               	.LBB456:
 554:lib/lufa/LUFA/Drivers/USB/Core/AVR8/../AVR8/../AVR8/Endpoint_AVR8.h **** 			}
 3004               		.loc 2 554 0
 3005 0070 4093 F100 		sts 241,r20
 3006               	.LVL301:
 3007               	.LBE456:
 3008               	.LBE455:
  64:lib/lufa/LUFA/Drivers/USB/Core/AVR8/Template/Template_Endpoint_Control_W.c **** 				Length--;
 3009               		.loc 4 64 0
 3010 0074 0197      		sbiw r24,1
 3011               	.LVL302:
  65:lib/lufa/LUFA/Drivers/USB/Core/AVR8/Template/Template_Endpoint_Control_W.c **** 				BytesInEndpoint++;
 3012               		.loc 4 65 0
 3013 0076 6150      		subi r22,1
 3014 0078 7109      		sbc r23,__zero_reg__
 3015               	.LVL303:
  66:lib/lufa/LUFA/Drivers/USB/Core/AVR8/Template/Template_Endpoint_Control_W.c **** 			}
 3016               		.loc 4 66 0
 3017 007a 2F5F      		subi r18,-1
 3018 007c 3F4F      		sbci r19,-1
 3019               	.LVL304:
 3020 007e 00C0      		rjmp .L287
 3021               	.LVL305:
 3022               	.L288:
  69:lib/lufa/LUFA/Drivers/USB/Core/AVR8/Template/Template_Endpoint_Control_W.c **** 			Endpoint_ClearIN();
 3023               		.loc 4 69 0
 3024 0080 41E0      		ldi r20,lo8(1)
 3025 0082 2830      		cpi r18,8
 3026 0084 3105      		cpc r19,__zero_reg__
 3027 0086 01F0      		breq .L290
 3028 0088 40E0      		ldi r20,0
 3029               	.L290:
 3030               	.LVL306:
 3031               	.LBB457:
 3032               	.LBB458:
 456:lib/lufa/LUFA/Drivers/USB/Core/AVR8/../AVR8/../AVR8/Endpoint_AVR8.h **** 				#else
 3033               		.loc 2 456 0
 3034 008a 2091 E800 		lds r18,232
 3035               	.LVL307:
 3036 008e 2E77      		andi r18,lo8(126)
 3037 0090 2093 E800 		sts 232,r18
 3038 0094 00C0      		rjmp .L286
 3039               	.L309:
 3040               	.LBE458:
 3041               	.LBE457:
 3042               	.LBE451:
 3043               	.LBE444:
  44:lib/lufa/LUFA/Drivers/USB/Core/AVR8/Template/Template_Endpoint_Control_W.c **** 	{
 3044               		.loc 4 44 0 discriminator 1
 3045 0096 4111      		cpse r20,__zero_reg__
 3046 0098 00C0      		rjmp .L291
 3047 009a 00C0      		rjmp .L305
 3048               	.LVL308:
 3049               	.L292:
 3050               	.LBB459:
  76:lib/lufa/LUFA/Drivers/USB/Core/AVR8/Template/Template_Endpoint_Control_W.c **** 
 3051               		.loc 4 76 0
 3052 009c 8091 0000 		lds r24,USB_DeviceState
 3053               	.LVL309:
  78:lib/lufa/LUFA/Drivers/USB/Core/AVR8/Template/Template_Endpoint_Control_W.c **** 		  return ENDPOINT_RWCSTREAM_DeviceDisconnected;
 3054               		.loc 4 78 0
 3055 00a0 8823      		tst r24
 3056 00a2 01F0      		breq .L297
  80:lib/lufa/LUFA/Drivers/USB/Core/AVR8/Template/Template_Endpoint_Control_W.c **** 		  return ENDPOINT_RWCSTREAM_BusSuspended;
 3057               		.loc 4 80 0
 3058 00a4 8530      		cpi r24,lo8(5)
 3059 00a6 01F0      		breq .L298
 3060               	.LBB460:
 3061               	.LBB461:
 431:lib/lufa/LUFA/Drivers/USB/Core/AVR8/../AVR8/../AVR8/Endpoint_AVR8.h **** 			}
 3062               		.loc 2 431 0
 3063 00a8 8091 E800 		lds r24,232
 3064               	.LVL310:
 3065               	.LBE461:
 3066               	.LBE460:
  82:lib/lufa/LUFA/Drivers/USB/Core/AVR8/Template/Template_Endpoint_Control_W.c **** 		  return ENDPOINT_RWCSTREAM_HostAborted;
 3067               		.loc 4 82 0
 3068 00ac 83FD      		sbrc r24,3
 3069 00ae 00C0      		rjmp .L299
 3070               	.L305:
 3071               	.LBE459:
 3072               	.LBB462:
 3073               	.LBB463:
 419:lib/lufa/LUFA/Drivers/USB/Core/AVR8/../AVR8/../AVR8/Endpoint_AVR8.h **** 			}
 3074               		.loc 2 419 0
 3075 00b0 8091 E800 		lds r24,232
 3076               	.LBE463:
 3077               	.LBE462:
  74:lib/lufa/LUFA/Drivers/USB/Core/AVR8/Template/Template_Endpoint_Control_W.c **** 	{
 3078               		.loc 4 74 0
 3079 00b4 82FF      		sbrs r24,2
 3080 00b6 00C0      		rjmp .L292
  86:lib/lufa/LUFA/Drivers/USB/Core/AVR8/Template/Template_Endpoint_Control_W.c **** }
 3081               		.loc 4 86 0
 3082 00b8 80E0      		ldi r24,0
 3083 00ba 0895      		ret
 3084               	.L297:
 3085               	.LBB464:
  49:lib/lufa/LUFA/Drivers/USB/Core/AVR8/Template/Template_Endpoint_Control_W.c **** 		else if (USB_DeviceState_LCL == DEVICE_STATE_Suspended)
 3086               		.loc 4 49 0
 3087 00bc 82E0      		ldi r24,lo8(2)
 3088 00be 0895      		ret
 3089               	.L298:
  51:lib/lufa/LUFA/Drivers/USB/Core/AVR8/Template/Template_Endpoint_Control_W.c **** 		else if (Endpoint_IsSETUPReceived())
 3090               		.loc 4 51 0
 3091 00c0 83E0      		ldi r24,lo8(3)
 3092 00c2 0895      		ret
 3093               	.L299:
  53:lib/lufa/LUFA/Drivers/USB/Core/AVR8/Template/Template_Endpoint_Control_W.c **** 		else if (Endpoint_IsOUTReceived())
 3094               		.loc 4 53 0
 3095 00c4 81E0      		ldi r24,lo8(1)
 3096               	.LBE464:
 3097               		.loc 4 87 0
 3098 00c6 0895      		ret
 3099               		.cfi_endproc
 3100               	.LFE97:
 3102               		.section	.text.Endpoint_Write_Control_EStream_LE,"ax",@progbits
 3103               	.global	Endpoint_Write_Control_EStream_LE
 3105               	Endpoint_Write_Control_EStream_LE:
 3106               	.LFB98:
  35:lib/lufa/LUFA/Drivers/USB/Core/AVR8/Template/Template_Endpoint_Control_W.c **** 	uint8_t* DataStream     = ((uint8_t*)Buffer + TEMPLATE_BUFFER_OFFSET(Length));
 3107               		.loc 4 35 0
 3108               		.cfi_startproc
 3109               	.LVL311:
 3110 0000 CF92      		push r12
 3111               	.LCFI92:
 3112               		.cfi_def_cfa_offset 3
 3113               		.cfi_offset 12, -2
 3114 0002 DF92      		push r13
 3115               	.LCFI93:
 3116               		.cfi_def_cfa_offset 4
 3117               		.cfi_offset 13, -3
 3118 0004 EF92      		push r14
 3119               	.LCFI94:
 3120               		.cfi_def_cfa_offset 5
 3121               		.cfi_offset 14, -4
 3122 0006 FF92      		push r15
 3123               	.LCFI95:
 3124               		.cfi_def_cfa_offset 6
 3125               		.cfi_offset 15, -5
 3126 0008 0F93      		push r16
 3127               	.LCFI96:
 3128               		.cfi_def_cfa_offset 7
 3129               		.cfi_offset 16, -6
 3130 000a 1F93      		push r17
 3131               	.LCFI97:
 3132               		.cfi_def_cfa_offset 8
 3133               		.cfi_offset 17, -7
 3134 000c CF93      		push r28
 3135               	.LCFI98:
 3136               		.cfi_def_cfa_offset 9
 3137               		.cfi_offset 28, -8
 3138 000e DF93      		push r29
 3139               	.LCFI99:
 3140               		.cfi_def_cfa_offset 10
 3141               		.cfi_offset 29, -9
 3142               	/* prologue: function */
 3143               	/* frame size = 0 */
 3144               	/* stack size = 8 */
 3145               	.L__stack_usage = 8
 3146 0010 EB01      		movw r28,r22
 3147               	.LVL312:
  39:lib/lufa/LUFA/Drivers/USB/Core/AVR8/Template/Template_Endpoint_Control_W.c **** 	  Length = USB_ControlRequest.wLength;
 3148               		.loc 4 39 0
 3149 0012 2091 0000 		lds r18,USB_ControlRequest+6
 3150 0016 3091 0000 		lds r19,USB_ControlRequest+6+1
 3151 001a 2617      		cp r18,r22
 3152 001c 3707      		cpc r19,r23
 3153 001e 00F0      		brlo .L322
  41:lib/lufa/LUFA/Drivers/USB/Core/AVR8/Template/Template_Endpoint_Control_W.c **** 	  Endpoint_ClearIN();
 3154               		.loc 4 41 0
 3155 0020 2097      		sbiw r28,0
 3156 0022 01F4      		brne .L311
 3157               	.LBB465:
 3158               	.LBB466:
 456:lib/lufa/LUFA/Drivers/USB/Core/AVR8/../AVR8/../AVR8/Endpoint_AVR8.h **** 				#else
 3159               		.loc 2 456 0
 3160 0024 2091 E800 		lds r18,232
 3161 0028 2E77      		andi r18,lo8(126)
 3162 002a 2093 E800 		sts 232,r18
 3163 002e 00C0      		rjmp .L311
 3164               	.L322:
 3165               	.LBE466:
 3166               	.LBE465:
