   1               		.file	"host.c"
   2               	__SP_H__ = 0x3e
   3               	__SP_L__ = 0x3d
   4               	__SREG__ = 0x3f
   5               	__tmp_reg__ = 0
   6               	__zero_reg__ = 1
   7               		.text
   8               	.Ltext0:
   9               		.cfi_sections	.debug_frame
  10               		.section	.text.host_set_driver,"ax",@progbits
  11               	.global	host_set_driver
  13               	host_set_driver:
  14               	.LFB1:
  15               		.file 1 "tmk_core/common/host.c"
   1:tmk_core/common/host.c **** /*
   2:tmk_core/common/host.c **** Copyright 2011,2012 Jun Wako <wakojun@gmail.com>
   3:tmk_core/common/host.c **** 
   4:tmk_core/common/host.c **** This program is free software: you can redistribute it and/or modify
   5:tmk_core/common/host.c **** it under the terms of the GNU General Public License as published by
   6:tmk_core/common/host.c **** the Free Software Foundation, either version 2 of the License, or
   7:tmk_core/common/host.c **** (at your option) any later version.
   8:tmk_core/common/host.c **** 
   9:tmk_core/common/host.c **** This program is distributed in the hope that it will be useful,
  10:tmk_core/common/host.c **** but WITHOUT ANY WARRANTY; without even the implied warranty of
  11:tmk_core/common/host.c **** MERCHANTABILITY or FITNESS FOR A PARTICULAR PURPOSE.  See the
  12:tmk_core/common/host.c **** GNU General Public License for more details.
  13:tmk_core/common/host.c **** 
  14:tmk_core/common/host.c **** You should have received a copy of the GNU General Public License
  15:tmk_core/common/host.c **** along with this program.  If not, see <http://www.gnu.org/licenses/>.
  16:tmk_core/common/host.c **** */
  17:tmk_core/common/host.c **** 
  18:tmk_core/common/host.c **** #include <stdint.h>
  19:tmk_core/common/host.c **** //#include <avr/interrupt.h>
  20:tmk_core/common/host.c **** #include "keycode.h"
  21:tmk_core/common/host.c **** #include "host.h"
  22:tmk_core/common/host.c **** #include "util.h"
  23:tmk_core/common/host.c **** #include "debug.h"
  24:tmk_core/common/host.c **** 
  25:tmk_core/common/host.c **** #ifdef NKRO_ENABLE
  26:tmk_core/common/host.c **** #    include "keycode_config.h"
  27:tmk_core/common/host.c **** extern keymap_config_t keymap_config;
  28:tmk_core/common/host.c **** #endif
  29:tmk_core/common/host.c **** 
  30:tmk_core/common/host.c **** static host_driver_t *driver;
  31:tmk_core/common/host.c **** static uint16_t       last_system_report   = 0;
  32:tmk_core/common/host.c **** static uint16_t       last_consumer_report = 0;
  33:tmk_core/common/host.c **** 
  34:tmk_core/common/host.c **** void host_set_driver(host_driver_t *d) { driver = d; }
  16               		.loc 1 34 0
  17               		.cfi_startproc
  18               	.LVL0:
  19               	/* prologue: function */
  20               	/* frame size = 0 */
  21               	/* stack size = 0 */
  22               	.L__stack_usage = 0
  23               		.loc 1 34 0
  24 0000 9093 0000 		sts driver+1,r25
  25 0004 8093 0000 		sts driver,r24
  26 0008 0895      		ret
  27               		.cfi_endproc
  28               	.LFE1:
  30               		.section	.text.host_get_driver,"ax",@progbits
  31               	.global	host_get_driver
  33               	host_get_driver:
  34               	.LFB2:
  35:tmk_core/common/host.c **** 
  36:tmk_core/common/host.c **** host_driver_t *host_get_driver(void) { return driver; }
  35               		.loc 1 36 0
  36               		.cfi_startproc
  37               	/* prologue: function */
  38               	/* frame size = 0 */
  39               	/* stack size = 0 */
  40               	.L__stack_usage = 0
  41               		.loc 1 36 0
  42 0000 8091 0000 		lds r24,driver
  43 0004 9091 0000 		lds r25,driver+1
  44 0008 0895      		ret
  45               		.cfi_endproc
  46               	.LFE2:
  48               		.section	.text.host_keyboard_leds,"ax",@progbits
  49               	.global	host_keyboard_leds
  51               	host_keyboard_leds:
  52               	.LFB3:
  37:tmk_core/common/host.c **** 
  38:tmk_core/common/host.c **** uint8_t host_keyboard_leds(void) {
  53               		.loc 1 38 0
  54               		.cfi_startproc
  55               	/* prologue: function */
  56               	/* frame size = 0 */
  57               	/* stack size = 0 */
  58               	.L__stack_usage = 0
  39:tmk_core/common/host.c ****     if (!driver) return 0;
  59               		.loc 1 39 0
  60 0000 E091 0000 		lds r30,driver
  61 0004 F091 0000 		lds r31,driver+1
  62 0008 3097      		sbiw r30,0
  63 000a 01F0      		breq .L4
  40:tmk_core/common/host.c ****     return (*driver->keyboard_leds)();
  64               		.loc 1 40 0
  65 000c 0190      		ld __tmp_reg__,Z+
  66 000e F081      		ld r31,Z
  67 0010 E02D      		mov r30,__tmp_reg__
  68 0012 0994      		ijmp
  69               	.LVL1:
  70               	.L4:
  41:tmk_core/common/host.c **** }
  71               		.loc 1 41 0
  72 0014 80E0      		ldi r24,0
  73 0016 0895      		ret
  74               		.cfi_endproc
  75               	.LFE3:
  77               		.section	.text.host_keyboard_led_state,"ax",@progbits
  78               	.global	host_keyboard_led_state
  80               	host_keyboard_led_state:
  81               	.LFB4:
  42:tmk_core/common/host.c **** 
  43:tmk_core/common/host.c **** led_t host_keyboard_led_state(void) {
  82               		.loc 1 43 0
  83               		.cfi_startproc
  84               	/* prologue: function */
  85               	/* frame size = 0 */
  86               	/* stack size = 0 */
  87               	.L__stack_usage = 0
  44:tmk_core/common/host.c ****     if (!driver) return (led_t) {0};
  88               		.loc 1 44 0
  89 0000 E091 0000 		lds r30,driver
  90 0004 F091 0000 		lds r31,driver+1
  91 0008 3097      		sbiw r30,0
  92 000a 01F4      		brne .L7
  93               		.loc 1 44 0 is_stmt 0 discriminator 1
  94 000c 80E0      		ldi r24,0
  95 000e 0895      		ret
  96               	.L7:
  45:tmk_core/common/host.c ****     return (led_t)((*driver->keyboard_leds)());
  97               		.loc 1 45 0 is_stmt 1
  98 0010 0190      		ld __tmp_reg__,Z+
  99 0012 F081      		ld r31,Z
 100 0014 E02D      		mov r30,__tmp_reg__
 101 0016 0995      		icall
 102               	.LVL2:
  46:tmk_core/common/host.c **** }
 103               		.loc 1 46 0
 104 0018 0895      		ret
 105               		.cfi_endproc
 106               	.LFE4:
 108               		.section	.text.host_keyboard_send,"ax",@progbits
 109               	.global	host_keyboard_send
 111               	host_keyboard_send:
 112               	.LFB5:
  47:tmk_core/common/host.c **** 
  48:tmk_core/common/host.c **** /* send report */
  49:tmk_core/common/host.c **** void host_keyboard_send(report_keyboard_t *report) {
 113               		.loc 1 49 0
 114               		.cfi_startproc
 115               	.LVL3:
 116 0000 EF92      		push r14
 117               	.LCFI0:
 118               		.cfi_def_cfa_offset 3
 119               		.cfi_offset 14, -2
 120 0002 FF92      		push r15
 121               	.LCFI1:
 122               		.cfi_def_cfa_offset 4
 123               		.cfi_offset 15, -3
 124 0004 0F93      		push r16
 125               	.LCFI2:
 126               		.cfi_def_cfa_offset 5
 127               		.cfi_offset 16, -4
 128 0006 1F93      		push r17
 129               	.LCFI3:
 130               		.cfi_def_cfa_offset 6
 131               		.cfi_offset 17, -5
 132 0008 CF93      		push r28
 133               	.LCFI4:
 134               		.cfi_def_cfa_offset 7
 135               		.cfi_offset 28, -6
 136 000a DF93      		push r29
 137               	.LCFI5:
 138               		.cfi_def_cfa_offset 8
 139               		.cfi_offset 29, -7
 140               	/* prologue: function */
 141               	/* frame size = 0 */
 142               	/* stack size = 6 */
 143               	.L__stack_usage = 6
  50:tmk_core/common/host.c ****     if (!driver) return;
 144               		.loc 1 50 0
 145 000c E091 0000 		lds r30,driver
 146 0010 F091 0000 		lds r31,driver+1
 147 0014 3097      		sbiw r30,0
 148 0016 01F0      		breq .L9
 149 0018 8C01      		movw r16,r24
  51:tmk_core/common/host.c **** #if defined(NKRO_ENABLE) && defined(NKRO_SHARED_EP)
  52:tmk_core/common/host.c ****     if (keyboard_protocol && keymap_config.nkro) {
  53:tmk_core/common/host.c ****         /* The callers of this function assume that report->mods is where mods go in.
  54:tmk_core/common/host.c ****          * But report->nkro.mods can be at a different offset if core keyboard does not have a repo
  55:tmk_core/common/host.c ****          */
  56:tmk_core/common/host.c ****         report->nkro.mods      = report->mods;
  57:tmk_core/common/host.c ****         report->nkro.report_id = REPORT_ID_NKRO;
  58:tmk_core/common/host.c ****     } else
  59:tmk_core/common/host.c **** #endif
  60:tmk_core/common/host.c ****     {
  61:tmk_core/common/host.c **** #ifdef KEYBOARD_SHARED_EP
  62:tmk_core/common/host.c ****         report->report_id = REPORT_ID_KEYBOARD;
  63:tmk_core/common/host.c **** #endif
  64:tmk_core/common/host.c ****     }
  65:tmk_core/common/host.c ****     (*driver->send_keyboard)(report);
 150               		.loc 1 65 0
 151 001a 0280      		ldd __tmp_reg__,Z+2
 152 001c F381      		ldd r31,Z+3
 153 001e E02D      		mov r30,__tmp_reg__
 154 0020 0995      		icall
 155               	.LVL4:
  66:tmk_core/common/host.c **** 
  67:tmk_core/common/host.c ****     if (debug_keyboard) {
 156               		.loc 1 67 0
 157 0022 8091 0000 		lds r24,debug_config
 158 0026 82FF      		sbrs r24,2
 159 0028 00C0      		rjmp .L9
  68:tmk_core/common/host.c ****         dprint("keyboard_report: ");
 160               		.loc 1 68 0
 161 002a 80FF      		sbrs r24,0
 162 002c 00C0      		rjmp .L13
 163               		.loc 1 68 0 is_stmt 0 discriminator 1
 164 002e 80E0      		ldi r24,lo8(__c.2161)
 165 0030 90E0      		ldi r25,hi8(__c.2161)
 166 0032 0E94 0000 		call xputs
 167               	.LVL5:
 168               	.L13:
 169 0036 E801      		movw r28,r16
  49:tmk_core/common/host.c ****     if (!driver) return;
 170               		.loc 1 49 0 is_stmt 1 discriminator 1
 171 0038 18E0      		ldi r17,lo8(8)
 172               	.LBB2:
  69:tmk_core/common/host.c ****         for (uint8_t i = 0; i < KEYBOARD_REPORT_SIZE; i++) {
  70:tmk_core/common/host.c ****             dprintf("%02X ", report->raw[i]);
 173               		.loc 1 70 0 discriminator 1
 174 003a 80E0      		ldi r24,lo8(__c.2164)
 175 003c E82E      		mov r14,r24
 176 003e 80E0      		ldi r24,hi8(__c.2164)
 177 0040 F82E      		mov r15,r24
 178               	.LVL6:
 179               	.L15:
 180               		.loc 1 70 0 is_stmt 0
 181 0042 8091 0000 		lds r24,debug_config
 182 0046 80FF      		sbrs r24,0
 183 0048 00C0      		rjmp .L14
 184               		.loc 1 70 0 discriminator 1
 185 004a 8881      		ld r24,Y
 186 004c 1F92      		push __zero_reg__
 187               	.LCFI6:
 188               		.cfi_def_cfa_offset 9
 189 004e 8F93      		push r24
 190               	.LCFI7:
 191               		.cfi_def_cfa_offset 10
 192 0050 FF92      		push r15
 193               	.LCFI8:
 194               		.cfi_def_cfa_offset 11
 195 0052 EF92      		push r14
 196               	.LCFI9:
 197               		.cfi_def_cfa_offset 12
 198 0054 0E94 0000 		call __xprintf
 199               	.LVL7:
 200 0058 0F90      		pop __tmp_reg__
 201 005a 0F90      		pop __tmp_reg__
 202 005c 0F90      		pop __tmp_reg__
 203 005e 0F90      		pop __tmp_reg__
 204               	.LCFI10:
 205               		.cfi_def_cfa_offset 8
 206               	.L14:
 207               	.LVL8:
 208 0060 1150      		subi r17,lo8(-(-1))
 209 0062 2196      		adiw r28,1
 210               	.LVL9:
  69:tmk_core/common/host.c ****         for (uint8_t i = 0; i < KEYBOARD_REPORT_SIZE; i++) {
 211               		.loc 1 69 0 is_stmt 1 discriminator 2
 212 0064 1111      		cpse r17,__zero_reg__
 213 0066 00C0      		rjmp .L15
 214               	.LBE2:
  71:tmk_core/common/host.c ****         }
  72:tmk_core/common/host.c ****         dprint("\n");
 215               		.loc 1 72 0
 216 0068 8091 0000 		lds r24,debug_config
 217 006c 80FF      		sbrs r24,0
 218 006e 00C0      		rjmp .L9
 219               		.loc 1 72 0 is_stmt 0 discriminator 1
 220 0070 80E0      		ldi r24,lo8(__c.2169)
 221 0072 90E0      		ldi r25,hi8(__c.2169)
 222               	/* epilogue start */
  73:tmk_core/common/host.c ****     }
  74:tmk_core/common/host.c **** }
 223               		.loc 1 74 0 is_stmt 1 discriminator 1
 224 0074 DF91      		pop r29
 225 0076 CF91      		pop r28
 226               	.LVL10:
 227 0078 1F91      		pop r17
 228 007a 0F91      		pop r16
 229               	.LVL11:
 230 007c FF90      		pop r15
 231 007e EF90      		pop r14
  72:tmk_core/common/host.c ****     }
 232               		.loc 1 72 0 discriminator 1
 233 0080 0C94 0000 		jmp xputs
 234               	.LVL12:
 235               	.L9:
 236               	/* epilogue start */
 237               		.loc 1 74 0
 238 0084 DF91      		pop r29
 239 0086 CF91      		pop r28
 240 0088 1F91      		pop r17
 241 008a 0F91      		pop r16
 242 008c FF90      		pop r15
 243 008e EF90      		pop r14
 244 0090 0895      		ret
 245               		.cfi_endproc
 246               	.LFE5:
 248               		.section	.text.host_mouse_send,"ax",@progbits
 249               	.global	host_mouse_send
 251               	host_mouse_send:
 252               	.LFB6:
  75:tmk_core/common/host.c **** 
  76:tmk_core/common/host.c **** void host_mouse_send(report_mouse_t *report) {
 253               		.loc 1 76 0
 254               		.cfi_startproc
 255               	.LVL13:
 256               	/* prologue: function */
 257               	/* frame size = 0 */
 258               	/* stack size = 0 */
 259               	.L__stack_usage = 0
  77:tmk_core/common/host.c ****     if (!driver) return;
 260               		.loc 1 77 0
 261 0000 E091 0000 		lds r30,driver
 262 0004 F091 0000 		lds r31,driver+1
 263 0008 3097      		sbiw r30,0
 264 000a 01F0      		breq .L29
  78:tmk_core/common/host.c **** #ifdef MOUSE_SHARED_EP
  79:tmk_core/common/host.c ****     report->report_id = REPORT_ID_MOUSE;
 265               		.loc 1 79 0
 266 000c 22E0      		ldi r18,lo8(2)
 267 000e DC01      		movw r26,r24
 268 0010 2C93      		st X,r18
  80:tmk_core/common/host.c **** #endif
  81:tmk_core/common/host.c ****     (*driver->send_mouse)(report);
 269               		.loc 1 81 0
 270 0012 0480      		ldd __tmp_reg__,Z+4
 271 0014 F581      		ldd r31,Z+5
 272 0016 E02D      		mov r30,__tmp_reg__
 273 0018 0994      		ijmp
 274               	.LVL14:
 275               	.L29:
 276 001a 0895      		ret
 277               		.cfi_endproc
 278               	.LFE6:
 280               		.section	.text.host_system_send,"ax",@progbits
 281               	.global	host_system_send
 283               	host_system_send:
 284               	.LFB7:
  82:tmk_core/common/host.c **** }
  83:tmk_core/common/host.c **** 
  84:tmk_core/common/host.c **** void host_system_send(uint16_t report) {
 285               		.loc 1 84 0
 286               		.cfi_startproc
 287               	.LVL15:
 288               	/* prologue: function */
 289               	/* frame size = 0 */
 290               	/* stack size = 0 */
 291               	.L__stack_usage = 0
  85:tmk_core/common/host.c ****     if (report == last_system_report) return;
 292               		.loc 1 85 0
 293 0000 2091 0000 		lds r18,last_system_report
 294 0004 3091 0000 		lds r19,last_system_report+1
 295 0008 2817      		cp r18,r24
 296 000a 3907      		cpc r19,r25
 297 000c 01F0      		breq .L31
  86:tmk_core/common/host.c ****     last_system_report = report;
 298               		.loc 1 86 0
 299 000e 9093 0000 		sts last_system_report+1,r25
 300 0012 8093 0000 		sts last_system_report,r24
  87:tmk_core/common/host.c **** 
  88:tmk_core/common/host.c ****     if (!driver) return;
 301               		.loc 1 88 0
 302 0016 E091 0000 		lds r30,driver
 303 001a F091 0000 		lds r31,driver+1
 304 001e 3097      		sbiw r30,0
 305 0020 01F0      		breq .L31
  89:tmk_core/common/host.c ****     (*driver->send_system)(report);
 306               		.loc 1 89 0
 307 0022 0680      		ldd __tmp_reg__,Z+6
 308 0024 F781      		ldd r31,Z+7
 309 0026 E02D      		mov r30,__tmp_reg__
 310 0028 0994      		ijmp
 311               	.LVL16:
 312               	.L31:
 313 002a 0895      		ret
 314               		.cfi_endproc
 315               	.LFE7:
 317               		.section	.text.host_consumer_send,"ax",@progbits
 318               	.global	host_consumer_send
 320               	host_consumer_send:
 321               	.LFB8:
  90:tmk_core/common/host.c **** }
  91:tmk_core/common/host.c **** 
  92:tmk_core/common/host.c **** void host_consumer_send(uint16_t report) {
 322               		.loc 1 92 0
 323               		.cfi_startproc
 324               	.LVL17:
 325               	/* prologue: function */
 326               	/* frame size = 0 */
 327               	/* stack size = 0 */
 328               	.L__stack_usage = 0
  93:tmk_core/common/host.c ****     if (report == last_consumer_report) return;
 329               		.loc 1 93 0
 330 0000 2091 0000 		lds r18,last_consumer_report
 331 0004 3091 0000 		lds r19,last_consumer_report+1
 332 0008 2817      		cp r18,r24
 333 000a 3907      		cpc r19,r25
 334 000c 01F0      		breq .L38
  94:tmk_core/common/host.c ****     last_consumer_report = report;
 335               		.loc 1 94 0
 336 000e 9093 0000 		sts last_consumer_report+1,r25
 337 0012 8093 0000 		sts last_consumer_report,r24
  95:tmk_core/common/host.c **** 
  96:tmk_core/common/host.c ****     if (!driver) return;
 338               		.loc 1 96 0
 339 0016 E091 0000 		lds r30,driver
 340 001a F091 0000 		lds r31,driver+1
 341 001e 3097      		sbiw r30,0
 342 0020 01F0      		breq .L38
  97:tmk_core/common/host.c ****     (*driver->send_consumer)(report);
 343               		.loc 1 97 0
 344 0022 0084      		ldd __tmp_reg__,Z+8
 345 0024 F185      		ldd r31,Z+9
 346 0026 E02D      		mov r30,__tmp_reg__
 347 0028 0994      		ijmp
 348               	.LVL18:
 349               	.L38:
 350 002a 0895      		ret
 351               		.cfi_endproc
 352               	.LFE8:
 354               		.section	.text.host_last_system_report,"ax",@progbits
 355               	.global	host_last_system_report
 357               	host_last_system_report:
 358               	.LFB9:
  98:tmk_core/common/host.c **** }
  99:tmk_core/common/host.c **** 
 100:tmk_core/common/host.c **** uint16_t host_last_system_report(void) { return last_system_report; }
 359               		.loc 1 100 0
 360               		.cfi_startproc
 361               	/* prologue: function */
 362               	/* frame size = 0 */
 363               	/* stack size = 0 */
 364               	.L__stack_usage = 0
 365               		.loc 1 100 0
 366 0000 8091 0000 		lds r24,last_system_report
 367 0004 9091 0000 		lds r25,last_system_report+1
 368 0008 0895      		ret
 369               		.cfi_endproc
 370               	.LFE9:
 372               		.section	.text.host_last_consumer_report,"ax",@progbits
 373               	.global	host_last_consumer_report
 375               	host_last_consumer_report:
 376               	.LFB10:
 101:tmk_core/common/host.c **** 
 102:tmk_core/common/host.c **** uint16_t host_last_consumer_report(void) { return last_consumer_report; }
 377               		.loc 1 102 0
 378               		.cfi_startproc
 379               	/* prologue: function */
 380               	/* frame size = 0 */
 381               	/* stack size = 0 */
 382               	.L__stack_usage = 0
 383               		.loc 1 102 0
 384 0000 8091 0000 		lds r24,last_consumer_report
 385 0004 9091 0000 		lds r25,last_consumer_report+1
 386 0008 0895      		ret
 387               		.cfi_endproc
 388               	.LFE10:
 390               		.section	.progmem.data.__c.2169,"a",@progbits
 393               	__c.2169:
 394 0000 0A00      		.string	"\n"
 395               		.section	.progmem.data.__c.2164,"a",@progbits
 398               	__c.2164:
 399 0000 2530 3258 		.string	"%02X "
 399      2000 
 400               		.section	.progmem.data.__c.2161,"a",@progbits
 403               	__c.2161:
 404 0000 6B65 7962 		.string	"keyboard_report: "
 404      6F61 7264 
 404      5F72 6570 
 404      6F72 743A 
 404      2000 
 405               		.section	.bss.last_consumer_report,"aw",@nobits
 408               	last_consumer_report:
 409 0000 0000      		.zero	2
 410               		.section	.bss.last_system_report,"aw",@nobits
 413               	last_system_report:
 414 0000 0000      		.zero	2
 415               		.section	.bss.driver,"aw",@nobits
 418               	driver:
 419 0000 0000      		.zero	2
 420               		.text
 421               	.Letext0:
 422               		.file 2 "/usr/lib/avr/include/stdint.h"
 423               		.file 3 "tmk_core/common/report.h"
 424               		.file 4 "tmk_core/common/host_driver.h"
 425               		.file 5 "tmk_core/common/led.h"
 426               		.file 6 "tmk_core/common/debug.h"
 427               		.file 7 "tmk_core/common/avr/xprintf.h"