   1               		.file	"i2c_slave.c"
   2               	__SP_H__ = 0x3e
   3               	__SP_L__ = 0x3d
   4               	__SREG__ = 0x3f
   5               	__tmp_reg__ = 0
   6               	__zero_reg__ = 1
   7               		.text
   8               	.Ltext0:
   9               		.cfi_sections	.debug_frame
  10               		.section	.text.i2c_slave_init,"ax",@progbits
  11               	.global	i2c_slave_init
  13               	i2c_slave_init:
  14               	.LFB0:
  15               		.file 1 "drivers/avr/i2c_slave.c"
   1:drivers/avr/i2c_slave.c **** /*  Copyright (C) 2019 Elia Ritterbusch
   2:drivers/avr/i2c_slave.c ****  +
   3:drivers/avr/i2c_slave.c ****  *  This program is free software: you can redistribute it and/or modify
   4:drivers/avr/i2c_slave.c ****  *  it under the terms of the GNU General Public License as published by
   5:drivers/avr/i2c_slave.c ****  *  the Free Software Foundation, either version 3 of the License, or
   6:drivers/avr/i2c_slave.c ****  *  (at your option) any later version.
   7:drivers/avr/i2c_slave.c ****  *
   8:drivers/avr/i2c_slave.c ****  *  This program is distributed in the hope that it will be useful,
   9:drivers/avr/i2c_slave.c ****  *  but WITHOUT ANY WARRANTY; without even the implied warranty of
  10:drivers/avr/i2c_slave.c ****  *  MERCHANTABILITY or FITNESS FOR A PARTICULAR PURPOSE.  See the
  11:drivers/avr/i2c_slave.c ****  *  GNU General Public License for more details.
  12:drivers/avr/i2c_slave.c ****  *
  13:drivers/avr/i2c_slave.c ****  *  You should have received a copy of the GNU General Public License
  14:drivers/avr/i2c_slave.c ****  *  along with this program.  If not, see <https://www.gnu.org/licenses/>.
  15:drivers/avr/i2c_slave.c ****  */
  16:drivers/avr/i2c_slave.c **** /* Library made by: g4lvanix
  17:drivers/avr/i2c_slave.c ****  * Github repository: https://github.com/g4lvanix/I2C-slave-lib
  18:drivers/avr/i2c_slave.c ****  */
  19:drivers/avr/i2c_slave.c **** 
  20:drivers/avr/i2c_slave.c **** #include <avr/io.h>
  21:drivers/avr/i2c_slave.c **** #include <util/twi.h>
  22:drivers/avr/i2c_slave.c **** #include <avr/interrupt.h>
  23:drivers/avr/i2c_slave.c **** #include <stdbool.h>
  24:drivers/avr/i2c_slave.c **** 
  25:drivers/avr/i2c_slave.c **** #include "i2c_slave.h"
  26:drivers/avr/i2c_slave.c **** 
  27:drivers/avr/i2c_slave.c **** volatile uint8_t i2c_slave_reg[I2C_SLAVE_REG_COUNT];
  28:drivers/avr/i2c_slave.c **** 
  29:drivers/avr/i2c_slave.c **** static volatile uint8_t buffer_address;
  30:drivers/avr/i2c_slave.c **** static volatile bool    slave_has_register_set = false;
  31:drivers/avr/i2c_slave.c **** 
  32:drivers/avr/i2c_slave.c **** void i2c_slave_init(uint8_t address) {
  16               		.loc 1 32 0
  17               		.cfi_startproc
  18               	.LVL0:
  19               	/* prologue: function */
  20               	/* frame size = 0 */
  21               	/* stack size = 0 */
  22               	.L__stack_usage = 0
  33:drivers/avr/i2c_slave.c ****     // load address into TWI address register
  34:drivers/avr/i2c_slave.c ****     TWAR = address;
  23               		.loc 1 34 0
  24 0000 8093 BA00 		sts 186,r24
  35:drivers/avr/i2c_slave.c ****     // set the TWCR to enable address matching and enable TWI, clear TWINT, enable TWI interrupt
  36:drivers/avr/i2c_slave.c ****     TWCR = (1 << TWIE) | (1 << TWEA) | (1 << TWINT) | (1 << TWEN);
  25               		.loc 1 36 0
  26 0004 85EC      		ldi r24,lo8(-59)
  27               	.LVL1:
  28 0006 8093 BC00 		sts 188,r24
  29               	.LVL2:
  30 000a 0895      		ret
  31               		.cfi_endproc
  32               	.LFE0:
  34               		.section	.text.i2c_slave_stop,"ax",@progbits
  35               	.global	i2c_slave_stop
  37               	i2c_slave_stop:
  38               	.LFB1:
  37:drivers/avr/i2c_slave.c **** }
  38:drivers/avr/i2c_slave.c **** 
  39:drivers/avr/i2c_slave.c **** void i2c_slave_stop(void) {
  39               		.loc 1 39 0
  40               		.cfi_startproc
  41               	/* prologue: function */
  42               	/* frame size = 0 */
  43               	/* stack size = 0 */
  44               	.L__stack_usage = 0
  40:drivers/avr/i2c_slave.c ****     // clear acknowledge and enable bits
  41:drivers/avr/i2c_slave.c ****     TWCR &= ~((1 << TWEA) | (1 << TWEN));
  45               		.loc 1 41 0
  46 0000 ECEB      		ldi r30,lo8(-68)
  47 0002 F0E0      		ldi r31,0
  48 0004 8081      		ld r24,Z
  49 0006 8B7B      		andi r24,lo8(-69)
  50 0008 8083      		st Z,r24
  51 000a 0895      		ret
  52               		.cfi_endproc
  53               	.LFE1:
  55               		.section	.text.__vector_36,"ax",@progbits
  56               	.global	__vector_36
  58               	__vector_36:
  59               	.LFB2:
  42:drivers/avr/i2c_slave.c **** }
  43:drivers/avr/i2c_slave.c **** 
  44:drivers/avr/i2c_slave.c **** ISR(TWI_vect) {
  60               		.loc 1 44 0
  61               		.cfi_startproc
  62 0000 1F92      		push r1
  63               	.LCFI0:
  64               		.cfi_def_cfa_offset 3
  65               		.cfi_offset 1, -2
  66 0002 0F92      		push r0
  67               	.LCFI1:
  68               		.cfi_def_cfa_offset 4
  69               		.cfi_offset 0, -3
  70 0004 0FB6      		in r0,__SREG__
  71 0006 0F92      		push r0
  72 0008 1124      		clr __zero_reg__
  73 000a 8F93      		push r24
  74               	.LCFI2:
  75               		.cfi_def_cfa_offset 5
  76               		.cfi_offset 24, -4
  77 000c 9F93      		push r25
  78               	.LCFI3:
  79               		.cfi_def_cfa_offset 6
  80               		.cfi_offset 25, -5
  81 000e EF93      		push r30
  82               	.LCFI4:
  83               		.cfi_def_cfa_offset 7
  84               		.cfi_offset 30, -6
  85 0010 FF93      		push r31
  86               	.LCFI5:
  87               		.cfi_def_cfa_offset 8
  88               		.cfi_offset 31, -7
  89               	/* prologue: Signal */
  90               	/* frame size = 0 */
  91               	/* stack size = 7 */
  92               	.L__stack_usage = 7
  93               	.LVL3:
  45:drivers/avr/i2c_slave.c ****     uint8_t ack = 1;
  46:drivers/avr/i2c_slave.c **** 
  47:drivers/avr/i2c_slave.c ****     switch (TW_STATUS) {
  94               		.loc 1 47 0
  95 0012 8091 B900 		lds r24,185
  96 0016 887F      		andi r24,lo8(-8)
  97 0018 8038      		cpi r24,lo8(-128)
  98 001a 01F0      		breq .L5
  99 001c 00F4      		brsh .L6
 100 001e 8823      		tst r24
 101 0020 01F0      		breq .L7
 102 0022 8036      		cpi r24,lo8(96)
 103 0024 01F4      		brne .L12
  48:drivers/avr/i2c_slave.c ****         case TW_SR_SLA_ACK:
  49:drivers/avr/i2c_slave.c ****             // The device is now a slave receiver
  50:drivers/avr/i2c_slave.c ****             slave_has_register_set = false;
 104               		.loc 1 50 0
 105 0026 1092 0000 		sts slave_has_register_set,__zero_reg__
 106 002a 00C0      		rjmp .L12
 107               	.L6:
  47:drivers/avr/i2c_slave.c ****         case TW_SR_SLA_ACK:
 108               		.loc 1 47 0
 109 002c 883A      		cpi r24,lo8(-88)
 110 002e 01F0      		breq .L9
 111 0030 883B      		cpi r24,lo8(-72)
 112 0032 01F0      		breq .L9
 113 0034 00C0      		rjmp .L12
 114               	.L5:
  51:drivers/avr/i2c_slave.c ****             break;
  52:drivers/avr/i2c_slave.c **** 
  53:drivers/avr/i2c_slave.c ****         case TW_SR_DATA_ACK:
  54:drivers/avr/i2c_slave.c ****             // This device is a slave receiver and has received data
  55:drivers/avr/i2c_slave.c ****             // First byte is the location then the bytes will be writen in buffer with auto-incrime
  56:drivers/avr/i2c_slave.c ****             if (!slave_has_register_set) {
 115               		.loc 1 56 0
 116 0036 8091 0000 		lds r24,slave_has_register_set
 117 003a 8111      		cpse r24,__zero_reg__
 118 003c 00C0      		rjmp .L10
  57:drivers/avr/i2c_slave.c ****                 buffer_address = TWDR;
 119               		.loc 1 57 0
 120 003e 8091 BB00 		lds r24,187
 121 0042 8093 0000 		sts buffer_address,r24
  58:drivers/avr/i2c_slave.c **** 
  59:drivers/avr/i2c_slave.c ****                 if (buffer_address >= I2C_SLAVE_REG_COUNT) {  // address out of bounds dont ack
 122               		.loc 1 59 0
 123 0046 8091 0000 		lds r24,buffer_address
 124 004a 8E31      		cpi r24,lo8(30)
 125 004c 00F0      		brlo .L13
 126               	.LVL4:
  60:drivers/avr/i2c_slave.c ****                     ack            = 0;
  61:drivers/avr/i2c_slave.c ****                     buffer_address = 0;
 127               		.loc 1 61 0
 128 004e 1092 0000 		sts buffer_address,__zero_reg__
  60:drivers/avr/i2c_slave.c ****                     ack            = 0;
 129               		.loc 1 60 0
 130 0052 80E0      		ldi r24,0
 131 0054 00C0      		rjmp .L11
 132               	.LVL5:
 133               	.L13:
  45:drivers/avr/i2c_slave.c **** 
 134               		.loc 1 45 0
 135 0056 81E0      		ldi r24,lo8(1)
 136               	.LVL6:
 137               	.L11:
  62:drivers/avr/i2c_slave.c ****                 }
  63:drivers/avr/i2c_slave.c ****                 slave_has_register_set = true;  // address has been receaved now fill in buffer
 138               		.loc 1 63 0
 139 0058 91E0      		ldi r25,lo8(1)
 140 005a 9093 0000 		sts slave_has_register_set,r25
 141 005e 00C0      		rjmp .L4
 142               	.LVL7:
 143               	.L10:
  64:drivers/avr/i2c_slave.c ****             } else {
  65:drivers/avr/i2c_slave.c ****                 i2c_slave_reg[buffer_address] = TWDR;
 144               		.loc 1 65 0
 145 0060 E091 0000 		lds r30,buffer_address
 146 0064 F0E0      		ldi r31,0
 147 0066 8091 BB00 		lds r24,187
 148 006a E050      		subi r30,lo8(-(i2c_slave_reg))
 149 006c F040      		sbci r31,hi8(-(i2c_slave_reg))
 150 006e 8083      		st Z,r24
 151 0070 00C0      		rjmp .L20
 152               	.L9:
  66:drivers/avr/i2c_slave.c ****                 buffer_address++;
  67:drivers/avr/i2c_slave.c ****             }
  68:drivers/avr/i2c_slave.c ****             break;
  69:drivers/avr/i2c_slave.c **** 
  70:drivers/avr/i2c_slave.c ****         case TW_ST_SLA_ACK:
  71:drivers/avr/i2c_slave.c ****         case TW_ST_DATA_ACK:
  72:drivers/avr/i2c_slave.c ****             // This device is a slave transmitter and master has requested data
  73:drivers/avr/i2c_slave.c ****             TWDR = i2c_slave_reg[buffer_address];
 153               		.loc 1 73 0
 154 0072 E091 0000 		lds r30,buffer_address
 155 0076 F0E0      		ldi r31,0
 156 0078 E050      		subi r30,lo8(-(i2c_slave_reg))
 157 007a F040      		sbci r31,hi8(-(i2c_slave_reg))
 158 007c 8081      		ld r24,Z
 159 007e 8093 BB00 		sts 187,r24
 160               	.L20:
  74:drivers/avr/i2c_slave.c ****             buffer_address++;
 161               		.loc 1 74 0
 162 0082 8091 0000 		lds r24,buffer_address
 163 0086 8F5F      		subi r24,lo8(-(1))
 164 0088 8093 0000 		sts buffer_address,r24
 165 008c 00C0      		rjmp .L12
 166               	.L7:
  75:drivers/avr/i2c_slave.c ****             break;
  76:drivers/avr/i2c_slave.c **** 
  77:drivers/avr/i2c_slave.c ****         case TW_BUS_ERROR:
  78:drivers/avr/i2c_slave.c ****             // We got an error, reset i2c
  79:drivers/avr/i2c_slave.c ****             TWCR = 0;
 167               		.loc 1 79 0
 168 008e 1092 BC00 		sts 188,__zero_reg__
 169               	.L12:
  45:drivers/avr/i2c_slave.c **** 
 170               		.loc 1 45 0
 171 0092 81E0      		ldi r24,lo8(1)
 172               	.LVL8:
 173               	.L4:
  80:drivers/avr/i2c_slave.c ****         default:
  81:drivers/avr/i2c_slave.c ****             break;
  82:drivers/avr/i2c_slave.c ****     }
  83:drivers/avr/i2c_slave.c **** 
  84:drivers/avr/i2c_slave.c ****     // Reset i2c state machine to be ready for next interrupt
  85:drivers/avr/i2c_slave.c ****     TWCR |= (1 << TWIE) | (1 << TWINT) | (ack << TWEA) | (1 << TWEN);
 174               		.loc 1 85 0
 175 0094 9091 BC00 		lds r25,188
 176 0098 8295      		swap r24
 177               	.LVL9:
 178 009a 880F      		lsl r24
 179 009c 880F      		lsl r24
 180 009e 807C      		andi r24,lo8(-64)
 181 00a0 9568      		ori r25,lo8(-123)
 182 00a2 892B      		or r24,r25
 183 00a4 8093 BC00 		sts 188,r24
 184               	/* epilogue start */
  86:drivers/avr/i2c_slave.c **** }
 185               		.loc 1 86 0
 186 00a8 FF91      		pop r31
 187 00aa EF91      		pop r30
 188 00ac 9F91      		pop r25
 189 00ae 8F91      		pop r24
 190 00b0 0F90      		pop r0
 191 00b2 0FBE      		out __SREG__,r0
 192 00b4 0F90      		pop r0
 193 00b6 1F90      		pop r1
 194 00b8 1895      		reti
 195               		.cfi_endproc
 196               	.LFE2:
 198               		.section	.bss.slave_has_register_set,"aw",@nobits
 201               	slave_has_register_set:
 202 0000 00        		.zero	1
 203               		.section	.bss.buffer_address,"aw",@nobits
 206               	buffer_address:
 207 0000 00        		.zero	1
 208               		.comm	i2c_slave_reg,30,1
 209               		.text
 210               	.Letext0:
 211               		.file 2 "/usr/lib/avr/include/stdint.h"